TN:
SF:/usr/include/c++/9/bits/char_traits.h
FN:329,_ZNSt11char_traitsIcE6lengthEPKc
FNDA:0,_ZNSt11char_traitsIcE6lengthEPKc
DA:329,0
DA:335,0
end_of_record
SF:/usr/include/c++/9/bits/cpp_type_traits.h
FN:428,_ZSt12__miter_baseIPPN2ht11hashed_pairIN6parser6prefixEiEEET_S7_
FNDA:0,_ZSt12__miter_baseIPPN2ht11hashed_pairIN6parser6prefixEiEEET_S7_
FN:428,_ZSt12__miter_baseIPN6parser6prefixEET_S3_
FNDA:0,_ZSt12__miter_baseIPN6parser6prefixEET_S3_
FN:428,_ZSt12__miter_baseIN9__gnu_cxx17__normal_iteratorIPKN6parser6prefixESt6vectorIS3_SaIS3_EEEEET_SA_
FNDA:0,_ZSt12__miter_baseIN9__gnu_cxx17__normal_iteratorIPKN6parser6prefixESt6vectorIS3_SaIS3_EEEEET_SA_
DA:428,0
DA:429,0
DA:428,0
DA:429,0
DA:428,0
DA:429,0
end_of_record
SF:/usr/include/c++/9/bits/basic_string.h
FN:243,_ZNSt7__cxx1112basic_stringIcSt11char_traitsIcESaIcEE16_M_construct_auxIPcEEvT_S7_St12__false_type
FNDA:0,_ZNSt7__cxx1112basic_stringIcSt11char_traitsIcESaIcEE16_M_construct_auxIPcEEvT_S7_St12__false_type
FN:243,_ZNSt7__cxx1112basic_stringIcSt11char_traitsIcESaIcEE16_M_construct_auxIPKcEEvT_S8_St12__false_type
FNDA:0,_ZNSt7__cxx1112basic_stringIcSt11char_traitsIcESaIcEE16_M_construct_auxIPKcEEvT_S8_St12__false_type
FN:263,_ZNSt7__cxx1112basic_stringIcSt11char_traitsIcESaIcEE12_M_constructIPcEEvT_S7_
FNDA:0,_ZNSt7__cxx1112basic_stringIcSt11char_traitsIcESaIcEE12_M_constructIPcEEvT_S7_
FN:263,_ZNSt7__cxx1112basic_stringIcSt11char_traitsIcESaIcEE12_M_constructIPKcEEvT_S8_
FNDA:0,_ZNSt7__cxx1112basic_stringIcSt11char_traitsIcESaIcEE12_M_constructIPKcEEvT_S8_
DA:243,0
DA:247,0
DA:248,0
DA:243,0
DA:247,0
DA:248,0
DA:263,0
DA:266,0
DA:267,0
DA:263,0
DA:266,0
DA:267,0
end_of_record
SF:/home/gab/Desktop/repos/cpp_projects/cresser/src/parser/parser.h
FN:28,_ZNK28duplicate_argument_exception4whatEv
FNDA:0,_ZNK28duplicate_argument_exception4whatEv
FN:34,_ZNK26duplicate_prefix_exception4whatEv
FNDA:0,_ZNK26duplicate_prefix_exception4whatEv
FN:44,_ZN6parser6prefixC2Ev
FNDA:3,_ZN6parser6prefixC2Ev
FN:48,_ZN6parsereqERKNS_6prefixES2_
FNDA:7,_ZN6parsereqERKNS_6prefixES2_
DA:28,0
DA:29,0
DA:34,0
DA:35,0
DA:44,3
DA:48,7
DA:49,7
end_of_record
SF:/usr/include/c++/9/bits/exception.h
FN:63,_ZNSt9exceptionC2Ev
FNDA:1,_ZNSt9exceptionC2Ev
FN:66,_ZNSt9exceptionC2ERKS_
FNDA:1,_ZNSt9exceptionC2ERKS_
DA:63,1
DA:66,1
end_of_record
SF:/usr/include/c++/9/bits/stl_construct.h
FN:74,_ZSt10_ConstructIN6parser6prefixEJRKS1_EEvPT_DpOT0_
FNDA:0,_ZSt10_ConstructIN6parser6prefixEJRKS1_EEvPT_DpOT0_
FN:74,_ZSt10_ConstructIN6parser6prefixEJRS1_EEvPT_DpOT0_
FNDA:0,_ZSt10_ConstructIN6parser6prefixEJRS1_EEvPT_DpOT0_
FN:97,_ZSt8_DestroyIN6parser6prefixEEvPT_
FNDA:0,_ZSt8_DestroyIN6parser6prefixEEvPT_
FN:105,_ZNSt12_Destroy_auxILb0EE9__destroyIN9__gnu_cxx17__normal_iteratorIPN6parser6prefixESt6vectorIS5_SaIS5_EEEEEEvT_SB_
FNDA:0,_ZNSt12_Destroy_auxILb0EE9__destroyIN9__gnu_cxx17__normal_iteratorIPN6parser6prefixESt6vectorIS5_SaIS5_EEEEEEvT_SB_
FN:105,_ZNSt12_Destroy_auxILb0EE9__destroyIPN6parser6prefixEEEvT_S5_
FNDA:0,_ZNSt12_Destroy_auxILb0EE9__destroyIPN6parser6prefixEEEvT_S5_
FN:117,_ZNSt12_Destroy_auxILb1EE9__destroyIPPN2ht11hashed_pairIN6parser6prefixEiEEEEvT_S9_
FNDA:0,_ZNSt12_Destroy_auxILb1EE9__destroyIPPN2ht11hashed_pairIN6parser6prefixEiEEEEvT_S9_
FN:127,_ZSt8_DestroyIPPN2ht11hashed_pairIN6parser6prefixEiEEEvT_S7_
FNDA:0,_ZSt8_DestroyIPPN2ht11hashed_pairIN6parser6prefixEiEEEvT_S7_
FN:127,_ZSt8_DestroyIN9__gnu_cxx17__normal_iteratorIPN6parser6prefixESt6vectorIS3_SaIS3_EEEEEvT_S9_
FNDA:0,_ZSt8_DestroyIN9__gnu_cxx17__normal_iteratorIPN6parser6prefixESt6vectorIS3_SaIS3_EEEEEvT_S9_
FN:127,_ZSt8_DestroyIPN6parser6prefixEEvT_S3_
FNDA:0,_ZSt8_DestroyIPN6parser6prefixEEvT_S3_
FN:203,_ZSt8_DestroyIPPN2ht11hashed_pairIN6parser6prefixEiEES5_EvT_S7_RSaIT0_E
FNDA:0,_ZSt8_DestroyIPPN2ht11hashed_pairIN6parser6prefixEiEES5_EvT_S7_RSaIT0_E
FN:203,_ZSt8_DestroyIN9__gnu_cxx17__normal_iteratorIPN6parser6prefixESt6vectorIS3_SaIS3_EEEES3_EvT_S9_RSaIT0_E
FNDA:0,_ZSt8_DestroyIN9__gnu_cxx17__normal_iteratorIPN6parser6prefixESt6vectorIS3_SaIS3_EEEES3_EvT_S9_RSaIT0_E
FN:203,_ZSt8_DestroyIPN6parser6prefixES1_EvT_S3_RSaIT0_E
FNDA:0,_ZSt8_DestroyIPN6parser6prefixES1_EvT_S3_RSaIT0_E
DA:74,0
DA:75,0
DA:74,0
DA:75,0
DA:97,0
DA:98,0
DA:105,0
DA:107,0
DA:108,0
DA:109,0
DA:105,0
DA:107,0
DA:108,0
DA:109,0
DA:117,0
DA:127,0
DA:137,0
DA:138,0
DA:127,0
DA:137,0
DA:138,0
DA:127,0
DA:137,0
DA:138,0
DA:203,0
DA:206,0
DA:207,0
DA:203,0
DA:206,0
DA:207,0
DA:203,0
DA:206,0
DA:207,0
end_of_record
SF:/usr/include/c++/9/bits/stl_iterator_base_types.h
FN:205,_ZSt19__iterator_categoryIPcENSt15iterator_traitsIT_E17iterator_categoryERKS2_
FNDA:0,_ZSt19__iterator_categoryIPcENSt15iterator_traitsIT_E17iterator_categoryERKS2_
FN:205,_ZSt19__iterator_categoryIPKcENSt15iterator_traitsIT_E17iterator_categoryERKS3_
FNDA:0,_ZSt19__iterator_categoryIPKcENSt15iterator_traitsIT_E17iterator_categoryERKS3_
DA:205,0
DA:206,0
DA:205,0
DA:206,0
end_of_record
SF:/usr/include/c++/9/ext/type_traits.h
FN:152,_ZN9__gnu_cxx17__is_null_pointerIcEEbPT_
FNDA:0,_ZN9__gnu_cxx17__is_null_pointerIcEEbPT_
FN:152,_ZN9__gnu_cxx17__is_null_pointerIKcEEbPT_
FNDA:0,_ZN9__gnu_cxx17__is_null_pointerIKcEEbPT_
DA:152,0
DA:153,0
DA:152,0
DA:153,0
end_of_record
SF:/usr/include/c++/9/bits/vector.tcc
FN:198,_ZNSt6vectorIN6parser6prefixESaIS1_EEaSERKS3_
FNDA:1,_ZNSt6vectorIN6parser6prefixESaIS1_EEaSERKS3_
FN:426,_ZNSt6vectorIPN2ht11hashed_pairIN6parser6prefixEiEESaIS5_EE17_M_realloc_insertIJRKS5_EEEvN9__gnu_cxx17__normal_iteratorIPS5_S7_EEDpOT_
FNDA:3,_ZNSt6vectorIPN2ht11hashed_pairIN6parser6prefixEiEESaIS5_EE17_M_realloc_insertIJRKS5_EEEvN9__gnu_cxx17__normal_iteratorIPS5_S7_EEDpOT_
DA:198,1
DA:201,1
DA:205,1
DA:207,0
DA:208,0
DA:211,0
DA:212,0
DA:213,0
DA:214,0
DA:215,0
DA:216,0
DA:217,0
DA:219,0
DA:223,1
DA:224,1
DA:226,1
DA:228,1
DA:229,1
DA:230,1
DA:231,1
DA:232,1
DA:233,1
DA:234,1
DA:236,0
DA:238,0
DA:239,0
DA:243,0
DA:245,0
DA:246,0
DA:248,0
DA:250,1
DA:252,1
DA:426,3
DA:435,3
DA:437,3
DA:438,3
DA:439,3
DA:440,3
DA:441,3
DA:449,3
DA:450,3
DA:456,3
DA:459,3
DA:461,3
DA:462,3
DA:464,3
DA:466,3
DA:467,3
DA:474,0
DA:475,0
DA:477,0
DA:481,0
DA:482,0
DA:485,0
DA:487,0
DA:488,0
DA:489,0
DA:491,0
DA:492,0
DA:493,0
DA:496,3
DA:498,0
DA:500,3
DA:501,3
DA:502,3
DA:503,3
DA:504,3
DA:505,3
end_of_record
SF:/usr/include/c++/9/bits/stl_algobase.h
FN:198,_ZSt3minImERKT_S2_S2_
FNDA:0,_ZSt3minImERKT_S2_S2_
FN:222,_ZSt3maxImERKT_S2_S2_
FNDA:3,_ZSt3maxImERKT_S2_S2_
FN:280,_ZSt12__niter_baseIPN6parser6prefixEET_S3_
FNDA:0,_ZSt12__niter_baseIPN6parser6prefixEET_S3_
FN:280,_ZSt12__niter_baseIPPN2ht11hashed_pairIN6parser6prefixEiEEET_S7_
FNDA:18,_ZSt12__niter_baseIPPN2ht11hashed_pairIN6parser6prefixEiEEET_S7_
FN:289,_ZSt12__niter_wrapIN9__gnu_cxx17__normal_iteratorIPN6parser6prefixESt6vectorIS3_SaIS3_EEEES4_ET_S9_T0_
FNDA:0,_ZSt12__niter_wrapIN9__gnu_cxx17__normal_iteratorIPN6parser6prefixESt6vectorIS3_SaIS3_EEEES4_ET_S9_T0_
FN:295,_ZSt12__niter_wrapIPN6parser6prefixEET_RKS3_S3_
FNDA:0,_ZSt12__niter_wrapIPN6parser6prefixEET_RKS3_S3_
FN:295,_ZSt12__niter_wrapIPPN2ht11hashed_pairIN6parser6prefixEiEEET_RKS7_S7_
FNDA:0,_ZSt12__niter_wrapIPPN2ht11hashed_pairIN6parser6prefixEiEEET_RKS7_S7_
FN:337,_ZNSt11__copy_moveILb0ELb0ESt26random_access_iterator_tagE8__copy_mIPN6parser6prefixES5_EET0_T_S7_S6_
FNDA:0,_ZNSt11__copy_moveILb0ELb0ESt26random_access_iterator_tagE8__copy_mIPN6parser6prefixES5_EET0_T_S7_S6_
FN:337,_ZNSt11__copy_moveILb0ELb0ESt26random_access_iterator_tagE8__copy_mIPKN6parser6prefixEPS4_EET0_T_S9_S8_
FNDA:0,_ZNSt11__copy_moveILb0ELb0ESt26random_access_iterator_tagE8__copy_mIPKN6parser6prefixEPS4_EET0_T_S9_S8_
FN:375,_ZNSt11__copy_moveILb1ELb1ESt26random_access_iterator_tagE8__copy_mIPN2ht11hashed_pairIN6parser6prefixEiEEEEPT_PKS9_SC_SA_
FNDA:0,_ZNSt11__copy_moveILb1ELb1ESt26random_access_iterator_tagE8__copy_mIPN2ht11hashed_pairIN6parser6prefixEiEEEEPT_PKS9_SC_SA_
FN:393,_ZSt13__copy_move_aILb0EPN6parser6prefixES2_ET1_T0_S4_S3_
FNDA:0,_ZSt13__copy_move_aILb0EPN6parser6prefixES2_ET1_T0_S4_S3_
FN:393,_ZSt13__copy_move_aILb1EPPN2ht11hashed_pairIN6parser6prefixEiEES6_ET1_T0_S8_S7_
FNDA:0,_ZSt13__copy_move_aILb1EPPN2ht11hashed_pairIN6parser6prefixEiEES6_ET1_T0_S8_S7_
FN:393,_ZSt13__copy_move_aILb0EPKN6parser6prefixEPS1_ET1_T0_S6_S5_
FNDA:0,_ZSt13__copy_move_aILb0EPKN6parser6prefixEPS1_ET1_T0_S6_S5_
FN:438,_ZSt14__copy_move_a2ILb1EPPN2ht11hashed_pairIN6parser6prefixEiEES6_ET1_T0_S8_S7_
FNDA:0,_ZSt14__copy_move_a2ILb1EPPN2ht11hashed_pairIN6parser6prefixEiEES6_ET1_T0_S8_S7_
FN:438,_ZSt14__copy_move_a2ILb0EPN6parser6prefixES2_ET1_T0_S4_S3_
FNDA:0,_ZSt14__copy_move_a2ILb0EPN6parser6prefixES2_ET1_T0_S4_S3_
FN:438,_ZSt14__copy_move_a2ILb0EN9__gnu_cxx17__normal_iteratorIPKN6parser6prefixESt6vectorIS3_SaIS3_EEEENS1_IPS3_S8_EEET1_T0_SD_SC_
FNDA:0,_ZSt14__copy_move_a2ILb0EN9__gnu_cxx17__normal_iteratorIPKN6parser6prefixESt6vectorIS3_SaIS3_EEEENS1_IPS3_S8_EEET1_T0_SD_SC_
FN:465,_ZSt4copyISt13move_iteratorIPPN2ht11hashed_pairIN6parser6prefixEiEEES7_ET0_T_SA_S9_
FNDA:0,_ZSt4copyISt13move_iteratorIPPN2ht11hashed_pairIN6parser6prefixEiEEES7_ET0_T_SA_S9_
FN:465,_ZSt4copyIPN6parser6prefixES2_ET0_T_S4_S3_
FNDA:0,_ZSt4copyIPN6parser6prefixES2_ET0_T_S4_S3_
FN:465,_ZSt4copyIN9__gnu_cxx17__normal_iteratorIPKN6parser6prefixESt6vectorIS3_SaIS3_EEEENS1_IPS3_S8_EEET0_T_SD_SC_
FNDA:0,_ZSt4copyIN9__gnu_cxx17__normal_iteratorIPKN6parser6prefixESt6vectorIS3_SaIS3_EEEENS1_IPS3_S8_EEET0_T_SD_SC_
DA:198,0
DA:203,0
DA:204,0
DA:205,0
DA:222,3
DA:227,3
DA:228,1
DA:229,2
DA:280,18
DA:282,18
DA:280,0
DA:282,0
DA:289,0
DA:290,0
DA:295,0
DA:296,0
DA:295,0
DA:296,0
DA:337,0
DA:340,0
DA:342,0
DA:343,0
DA:344,0
DA:346,0
DA:337,0
DA:340,0
DA:342,0
DA:343,0
DA:344,0
DA:346,0
DA:375,0
DA:384,0
DA:385,0
DA:386,0
DA:387,0
DA:393,0
DA:398,0
DA:404,0
DA:393,0
DA:398,0
DA:404,0
DA:393,0
DA:398,0
DA:404,0
DA:438,0
DA:440,0
DA:443,0
DA:438,0
DA:440,0
DA:443,0
DA:438,0
DA:440,0
DA:443,0
DA:465,0
DA:474,0
DA:465,0
DA:474,0
DA:465,0
DA:474,0
end_of_record
SF:/usr/include/c++/9/bits/stl_uninitialized.h
FN:76,_ZNSt20__uninitialized_copyILb0EE13__uninit_copyIN9__gnu_cxx17__normal_iteratorIPKN6parser6prefixESt6vectorIS5_SaIS5_EEEEPS5_EET0_T_SE_SD_
FNDA:0,_ZNSt20__uninitialized_copyILb0EE13__uninit_copyIN9__gnu_cxx17__normal_iteratorIPKN6parser6prefixESt6vectorIS5_SaIS5_EEEEPS5_EET0_T_SE_SD_
FN:76,_ZNSt20__uninitialized_copyILb0EE13__uninit_copyIPN6parser6prefixES4_EET0_T_S6_S5_
FNDA:0,_ZNSt20__uninitialized_copyILb0EE13__uninit_copyIPN6parser6prefixES4_EET0_T_S6_S5_
FN:99,_ZNSt20__uninitialized_copyILb1EE13__uninit_copyISt13move_iteratorIPPN2ht11hashed_pairIN6parser6prefixEiEEES9_EET0_T_SC_SB_
FNDA:0,_ZNSt20__uninitialized_copyILb1EE13__uninit_copyISt13move_iteratorIPPN2ht11hashed_pairIN6parser6prefixEiEEES9_EET0_T_SC_SB_
FN:115,_ZSt18uninitialized_copyISt13move_iteratorIPPN2ht11hashed_pairIN6parser6prefixEiEEES7_ET0_T_SA_S9_
FNDA:0,_ZSt18uninitialized_copyISt13move_iteratorIPPN2ht11hashed_pairIN6parser6prefixEiEEES7_ET0_T_SA_S9_
FN:115,_ZSt18uninitialized_copyIN9__gnu_cxx17__normal_iteratorIPKN6parser6prefixESt6vectorIS3_SaIS3_EEEEPS3_ET0_T_SC_SB_
FNDA:0,_ZSt18uninitialized_copyIN9__gnu_cxx17__normal_iteratorIPKN6parser6prefixESt6vectorIS3_SaIS3_EEEEPS3_ET0_T_SC_SB_
FN:115,_ZSt18uninitialized_copyIPN6parser6prefixES2_ET0_T_S4_S3_
FNDA:0,_ZSt18uninitialized_copyIPN6parser6prefixES2_ET0_T_S4_S3_
FN:305,_ZSt22__uninitialized_copy_aISt13move_iteratorIPPN2ht11hashed_pairIN6parser6prefixEiEEES7_S6_ET0_T_SA_S9_RSaIT1_E
FNDA:0,_ZSt22__uninitialized_copy_aISt13move_iteratorIPPN2ht11hashed_pairIN6parser6prefixEiEEES7_S6_ET0_T_SA_S9_RSaIT1_E
FN:305,_ZSt22__uninitialized_copy_aIN9__gnu_cxx17__normal_iteratorIPKN6parser6prefixESt6vectorIS3_SaIS3_EEEEPS3_S3_ET0_T_SC_SB_RSaIT1_E
FNDA:0,_ZSt22__uninitialized_copy_aIN9__gnu_cxx17__normal_iteratorIPKN6parser6prefixESt6vectorIS3_SaIS3_EEEEPS3_S3_ET0_T_SC_SB_RSaIT1_E
FN:305,_ZSt22__uninitialized_copy_aIPN6parser6prefixES2_S1_ET0_T_S4_S3_RSaIT1_E
FNDA:0,_ZSt22__uninitialized_copy_aIPN6parser6prefixES2_S1_ET0_T_S4_S3_RSaIT1_E
FN:323,_ZSt34__uninitialized_move_if_noexcept_aIPPN2ht11hashed_pairIN6parser6prefixEiEES6_SaIS5_EET0_T_S9_S8_RT1_
FNDA:0,_ZSt34__uninitialized_move_if_noexcept_aIPPN2ht11hashed_pairIN6parser6prefixEiEES6_SaIS5_EET0_T_S9_S8_RT1_
FN:924,_ZSt14__relocate_a_1IPN2ht11hashed_pairIN6parser6prefixEiEES5_ENSt9enable_ifIXsrSt24__is_bitwise_relocatableIT_vE5valueEPS8_E4typeESA_SA_SA_RSaIT0_E
FNDA:6,_ZSt14__relocate_a_1IPN2ht11hashed_pairIN6parser6prefixEiEES5_ENSt9enable_ifIXsrSt24__is_bitwise_relocatableIT_vE5valueEPS8_E4typeESA_SA_SA_RSaIT0_E
FN:958,_ZSt12__relocate_aIPPN2ht11hashed_pairIN6parser6prefixEiEES6_SaIS5_EET0_T_S9_S8_RT1_
FNDA:6,_ZSt12__relocate_aIPPN2ht11hashed_pairIN6parser6prefixEiEES6_SaIS5_EET0_T_S9_S8_RT1_
DA:76,0
DA:79,0
DA:82,0
DA:83,0
DA:84,0
DA:86,0
DA:88,0
DA:89,0
DA:76,0
DA:79,0
DA:82,0
DA:83,0
DA:84,0
DA:86,0
DA:88,0
DA:89,0
DA:99,0
DA:101,0
DA:115,0
DA:134,0
DA:140,0
DA:115,0
DA:134,0
DA:140,0
DA:115,0
DA:134,0
DA:140,0
DA:305,0
DA:307,0
DA:305,0
DA:307,0
DA:305,0
DA:307,0
DA:323,0
DA:329,0
DA:330,0
DA:924,6
DA:927,6
DA:928,6
DA:929,2
DA:930,6
DA:958,6
DA:964,6
DA:966,6
end_of_record
SF:/home/gab/Desktop/repos/cpp_projects/cresser/src/parser/parser.cpp
FN:17,_ZN6parser17argument_multimapC2EPPciSt6vectorINS_6prefixESaIS4_EE
FNDA:1,_ZN6parser17argument_multimapC2EPPciSt6vectorINS_6prefixESaIS4_EE
FN:44,_ZN6parser17argument_multimap5queryENS_6prefixE
FNDA:7,_ZN6parser17argument_multimap5queryENS_6prefixE
FN:55,_ZN6parser6prefix4hashEi
FNDA:10,_ZN6parser6prefix4hashEi
DA:17,1
DA:18,1
DA:19,1
DA:20,5
DA:21,4
DA:22,4
DA:23,20
DA:24,16
DA:25,3
DA:27,3
DA:28,0
DA:31,0
DA:34,16
DA:35,0
DA:38,4
DA:42,1
DA:44,7
DA:46,8
DA:47,2
DA:49,1
DA:55,10
DA:57,10
DA:58,30
DA:59,20
DA:60,20
DA:62,10
end_of_record
SF:/usr/include/c++/9/bits/allocator.h
FN:138,_ZNSaIPN2ht11hashed_pairIN6parser6prefixEiEEEC2Ev
FNDA:1,_ZNSaIPN2ht11hashed_pairIN6parser6prefixEiEEEC2Ev
FN:138,_ZNSaIN6parser6prefixEEC2Ev
FNDA:0,_ZNSaIN6parser6prefixEEC2Ev
FN:153,_ZNSaIPN2ht11hashed_pairIN6parser6prefixEiEEED2Ev
FNDA:0,_ZNSaIPN2ht11hashed_pairIN6parser6prefixEiEEED2Ev
FN:153,_ZNSaIN6parser6prefixEED2Ev
FNDA:0,_ZNSaIN6parser6prefixEED2Ev
FN:160,_ZStneRKSaIN6parser6prefixEES3_
FNDA:0,_ZStneRKSaIN6parser6prefixEES3_
DA:138,1
DA:138,0
DA:153,0
DA:153,0
DA:160,0
DA:161,0
end_of_record
SF:/usr/include/c++/9/bits/stl_iterator.h
FN:806,_ZN9__gnu_cxx17__normal_iteratorIPN6parser6prefixESt6vectorIS2_SaIS2_EEEC2ERKS3_
FNDA:0,_ZN9__gnu_cxx17__normal_iteratorIPN6parser6prefixESt6vectorIS2_SaIS2_EEEC2ERKS3_
FN:806,_ZN9__gnu_cxx17__normal_iteratorIPPN2ht11hashed_pairIN6parser6prefixEiEESt6vectorIS6_SaIS6_EEEC2ERKS7_
FNDA:6,_ZN9__gnu_cxx17__normal_iteratorIPPN2ht11hashed_pairIN6parser6prefixEiEESt6vectorIS6_SaIS6_EEEC2ERKS7_
FN:806,_ZN9__gnu_cxx17__normal_iteratorIPKN6parser6prefixESt6vectorIS2_SaIS2_EEEC2ERKS4_
FNDA:0,_ZN9__gnu_cxx17__normal_iteratorIPKN6parser6prefixESt6vectorIS2_SaIS2_EEEC2ERKS4_
FN:819,_ZNK9__gnu_cxx17__normal_iteratorIPKN6parser6prefixESt6vectorIS2_SaIS2_EEEdeEv
FNDA:0,_ZNK9__gnu_cxx17__normal_iteratorIPKN6parser6prefixESt6vectorIS2_SaIS2_EEEdeEv
FN:819,_ZNK9__gnu_cxx17__normal_iteratorIPN6parser6prefixESt6vectorIS2_SaIS2_EEEdeEv
FNDA:0,_ZNK9__gnu_cxx17__normal_iteratorIPN6parser6prefixESt6vectorIS2_SaIS2_EEEdeEv
FN:819,_ZNK9__gnu_cxx17__normal_iteratorIPPN2ht11hashed_pairIN6parser6prefixEiEESt6vectorIS6_SaIS6_EEEdeEv
FNDA:0,_ZNK9__gnu_cxx17__normal_iteratorIPPN2ht11hashed_pairIN6parser6prefixEiEESt6vectorIS6_SaIS6_EEEdeEv
FN:827,_ZN9__gnu_cxx17__normal_iteratorIPN6parser6prefixESt6vectorIS2_SaIS2_EEEppEv
FNDA:0,_ZN9__gnu_cxx17__normal_iteratorIPN6parser6prefixESt6vectorIS2_SaIS2_EEEppEv
FN:827,_ZN9__gnu_cxx17__normal_iteratorIPKN6parser6prefixESt6vectorIS2_SaIS2_EEEppEv
FNDA:0,_ZN9__gnu_cxx17__normal_iteratorIPKN6parser6prefixESt6vectorIS2_SaIS2_EEEppEv
FN:827,_ZN9__gnu_cxx17__normal_iteratorIPPN2ht11hashed_pairIN6parser6prefixEiEESt6vectorIS6_SaIS6_EEEppEv
FNDA:0,_ZN9__gnu_cxx17__normal_iteratorIPPN2ht11hashed_pairIN6parser6prefixEiEESt6vectorIS6_SaIS6_EEEppEv
FN:859,_ZNK9__gnu_cxx17__normal_iteratorIPN6parser6prefixESt6vectorIS2_SaIS2_EEEplEl
FNDA:0,_ZNK9__gnu_cxx17__normal_iteratorIPN6parser6prefixESt6vectorIS2_SaIS2_EEEplEl
FN:871,_ZNK9__gnu_cxx17__normal_iteratorIPKN6parser6prefixESt6vectorIS2_SaIS2_EEE4baseEv
FNDA:0,_ZNK9__gnu_cxx17__normal_iteratorIPKN6parser6prefixESt6vectorIS2_SaIS2_EEE4baseEv
FN:871,_ZNK9__gnu_cxx17__normal_iteratorIPN6parser6prefixESt6vectorIS2_SaIS2_EEE4baseEv
FNDA:0,_ZNK9__gnu_cxx17__normal_iteratorIPN6parser6prefixESt6vectorIS2_SaIS2_EEE4baseEv
FN:871,_ZNK9__gnu_cxx17__normal_iteratorIPPN2ht11hashed_pairIN6parser6prefixEiEESt6vectorIS6_SaIS6_EEE4baseEv
FNDA:12,_ZNK9__gnu_cxx17__normal_iteratorIPPN2ht11hashed_pairIN6parser6prefixEiEESt6vectorIS6_SaIS6_EEE4baseEv
FN:907,_ZN9__gnu_cxxneIPN6parser6prefixESt6vectorIS2_SaIS2_EEEEbRKNS_17__normal_iteratorIT_T0_EESC_
FNDA:0,_ZN9__gnu_cxxneIPN6parser6prefixESt6vectorIS2_SaIS2_EEEEbRKNS_17__normal_iteratorIT_T0_EESC_
FN:907,_ZN9__gnu_cxxneIPPN2ht11hashed_pairIN6parser6prefixEiEESt6vectorIS6_SaIS6_EEEEbRKNS_17__normal_iteratorIT_T0_EESG_
FNDA:0,_ZN9__gnu_cxxneIPPN2ht11hashed_pairIN6parser6prefixEiEESt6vectorIS6_SaIS6_EEEEbRKNS_17__normal_iteratorIT_T0_EESG_
FN:907,_ZN9__gnu_cxxneIPKN6parser6prefixESt6vectorIS2_SaIS2_EEEEbRKNS_17__normal_iteratorIT_T0_EESD_
FNDA:0,_ZN9__gnu_cxxneIPKN6parser6prefixESt6vectorIS2_SaIS2_EEEEbRKNS_17__normal_iteratorIT_T0_EESD_
FN:989,_ZN9__gnu_cxxmiIPPN2ht11hashed_pairIN6parser6prefixEiEESt6vectorIS6_SaIS6_EEEENS_17__normal_iteratorIT_T0_E15difference_typeERKSE_SH_
FNDA:3,_ZN9__gnu_cxxmiIPPN2ht11hashed_pairIN6parser6prefixEiEESt6vectorIS6_SaIS6_EEEENS_17__normal_iteratorIT_T0_E15difference_typeERKSE_SH_
FN:1010,_ZSt12__niter_baseIPKN6parser6prefixESt6vectorIS1_SaIS1_EEET_N9__gnu_cxx17__normal_iteratorIS7_T0_EE
FNDA:0,_ZSt12__niter_baseIPKN6parser6prefixESt6vectorIS1_SaIS1_EEET_N9__gnu_cxx17__normal_iteratorIS7_T0_EE
FN:1010,_ZSt12__niter_baseIPN6parser6prefixESt6vectorIS1_SaIS1_EEET_N9__gnu_cxx17__normal_iteratorIS6_T0_EE
FNDA:0,_ZSt12__niter_baseIPN6parser6prefixESt6vectorIS1_SaIS1_EEET_N9__gnu_cxx17__normal_iteratorIS6_T0_EE
FN:1057,_ZNSt13move_iteratorIPPN2ht11hashed_pairIN6parser6prefixEiEEEC2ES6_
FNDA:0,_ZNSt13move_iteratorIPPN2ht11hashed_pairIN6parser6prefixEiEEEC2ES6_
FN:1066,_ZNKSt13move_iteratorIPPN2ht11hashed_pairIN6parser6prefixEiEEE4baseEv
FNDA:0,_ZNKSt13move_iteratorIPPN2ht11hashed_pairIN6parser6prefixEiEEE4baseEv
FN:1242,_ZSt32__make_move_if_noexcept_iteratorIPN2ht11hashed_pairIN6parser6prefixEiEESt13move_iteratorIPS5_EET0_PT_
FNDA:0,_ZSt32__make_move_if_noexcept_iteratorIPN2ht11hashed_pairIN6parser6prefixEiEESt13move_iteratorIPS5_EET0_PT_
FN:1262,_ZSt12__miter_baseIPPN2ht11hashed_pairIN6parser6prefixEiEEEDTcl12__miter_basecldtfp_4baseEEESt13move_iteratorIT_E
FNDA:0,_ZSt12__miter_baseIPPN2ht11hashed_pairIN6parser6prefixEiEEEDTcl12__miter_basecldtfp_4baseEEESt13move_iteratorIT_E
DA:806,6
DA:807,6
DA:806,0
DA:807,0
DA:806,0
DA:807,0
DA:819,0
DA:820,0
DA:819,0
DA:820,0
DA:819,0
DA:820,0
DA:827,0
DA:829,0
DA:830,0
DA:827,0
DA:829,0
DA:830,0
DA:827,0
DA:829,0
DA:830,0
DA:859,0
DA:860,0
DA:871,0
DA:872,0
DA:871,12
DA:872,12
DA:871,0
DA:872,0
DA:907,0
DA:910,0
DA:907,0
DA:910,0
DA:907,0
DA:910,0
DA:989,3
DA:992,3
DA:1010,0
DA:1012,0
DA:1010,0
DA:1012,0
DA:1057,0
DA:1058,0
DA:1066,0
DA:1067,0
DA:1242,0
DA:1243,0
DA:1262,0
DA:1264,0
end_of_record
SF:/usr/include/c++/9/new
FN:173,_ZnwmPv
FNDA:0,_ZnwmPv
FN:179,_ZdlPvS_
FNDA:0,_ZdlPvS_
DA:173,0
DA:174,0
DA:179,0
end_of_record
SF:/usr/include/c++/9/bits/move.h
FN:47,_ZSt11__addressofIN6parser6prefixEEPT_RS2_
FNDA:0,_ZSt11__addressofIN6parser6prefixEEPT_RS2_
FN:74,_ZSt7forwardIRKN6parser6prefixEEOT_RNSt16remove_referenceIS4_E4typeE
FNDA:0,_ZSt7forwardIRKN6parser6prefixEEOT_RNSt16remove_referenceIS4_E4typeE
FN:74,_ZSt7forwardIRN6parser6prefixEEOT_RNSt16remove_referenceIS3_E4typeE
FNDA:0,_ZSt7forwardIRN6parser6prefixEEOT_RNSt16remove_referenceIS3_E4typeE
FN:74,_ZSt7forwardIRKPN2ht11hashed_pairIN6parser6prefixEiEEEOT_RNSt16remove_referenceIS8_E4typeE
FNDA:9,_ZSt7forwardIRKPN2ht11hashed_pairIN6parser6prefixEiEEEOT_RNSt16remove_referenceIS8_E4typeE
FN:99,_ZSt4moveIRSaIcEEONSt16remove_referenceIT_E4typeEOS3_
FNDA:0,_ZSt4moveIRSaIcEEONSt16remove_referenceIT_E4typeEOS3_
DA:47,0
DA:48,0
DA:74,0
DA:75,0
DA:74,0
DA:75,0
DA:74,9
DA:75,9
DA:99,0
DA:100,0
end_of_record
SF:/usr/include/c++/9/bits/alloc_traits.h
FN:443,_ZNSt16allocator_traitsISaIPN2ht11hashed_pairIN6parser6prefixEiEEEE8allocateERS6_m
FNDA:3,_ZNSt16allocator_traitsISaIPN2ht11hashed_pairIN6parser6prefixEiEEEE8allocateERS6_m
FN:443,_ZNSt16allocator_traitsISaIN6parser6prefixEEE8allocateERS2_m
FNDA:0,_ZNSt16allocator_traitsISaIN6parser6prefixEEE8allocateERS2_m
FN:469,_ZNSt16allocator_traitsISaIPN2ht11hashed_pairIN6parser6prefixEiEEEE10deallocateERS6_PS5_m
FNDA:0,_ZNSt16allocator_traitsISaIPN2ht11hashed_pairIN6parser6prefixEiEEEE10deallocateERS6_PS5_m
FN:469,_ZNSt16allocator_traitsISaIN6parser6prefixEEE10deallocateERS2_PS1_m
FNDA:0,_ZNSt16allocator_traitsISaIN6parser6prefixEEE10deallocateERS2_PS1_m
FN:482,_ZNSt16allocator_traitsISaIPN2ht11hashed_pairIN6parser6prefixEiEEEE9constructIS5_JRKS5_EEEvRS6_PT_DpOT0_
FNDA:3,_ZNSt16allocator_traitsISaIPN2ht11hashed_pairIN6parser6prefixEiEEEE9constructIS5_JRKS5_EEEvRS6_PT_DpOT0_
FN:495,_ZNSt16allocator_traitsISaIPN2ht11hashed_pairIN6parser6prefixEiEEEE7destroyIS5_EEvRS6_PT_
FNDA:0,_ZNSt16allocator_traitsISaIPN2ht11hashed_pairIN6parser6prefixEiEEEE7destroyIS5_EEvRS6_PT_
FN:505,_ZNSt16allocator_traitsISaIPN2ht11hashed_pairIN6parser6prefixEiEEEE8max_sizeERKS6_
FNDA:6,_ZNSt16allocator_traitsISaIPN2ht11hashed_pairIN6parser6prefixEiEEEE8max_sizeERKS6_
FN:514,_ZNSt16allocator_traitsISaIcEE37select_on_container_copy_constructionERKS0_
FNDA:0,_ZNSt16allocator_traitsISaIcEE37select_on_container_copy_constructionERKS0_
FN:526,_ZSt18__do_alloc_on_copyISaIN6parser6prefixEEEvRT_RKS3_St17integral_constantIbLb0EE
FNDA:0,_ZSt18__do_alloc_on_copyISaIN6parser6prefixEEEvRT_RKS3_St17integral_constantIbLb0EE
FN:530,_ZSt15__alloc_on_copyISaIN6parser6prefixEEEvRT_RKS3_
FNDA:0,_ZSt15__alloc_on_copyISaIN6parser6prefixEEEvRT_RKS3_
DA:443,3
DA:444,3
DA:443,0
DA:444,0
DA:469,0
DA:470,0
DA:469,0
DA:470,0
DA:482,3
DA:484,3
DA:495,0
DA:497,0
DA:505,6
DA:506,6
DA:514,0
DA:515,0
DA:526,0
DA:527,0
DA:530,0
DA:534,0
DA:535,0
end_of_record
SF:/usr/include/c++/9/bits/basic_string.tcc
FN:206,_ZNSt7__cxx1112basic_stringIcSt11char_traitsIcESaIcEE12_M_constructIPcEEvT_S7_St20forward_iterator_tag
FNDA:0,_ZNSt7__cxx1112basic_stringIcSt11char_traitsIcESaIcEE12_M_constructIPcEEvT_S7_St20forward_iterator_tag
FN:206,_ZNSt7__cxx1112basic_stringIcSt11char_traitsIcESaIcEE12_M_constructIPKcEEvT_S8_St20forward_iterator_tag
FNDA:0,_ZNSt7__cxx1112basic_stringIcSt11char_traitsIcESaIcEE12_M_constructIPKcEEvT_S8_St20forward_iterator_tag
DA:206,0
DA:211,0
DA:212,0
DA:215,0
DA:217,0
DA:219,0
DA:220,0
DA:225,0
DA:226,0
DA:228,0
DA:229,0
DA:232,0
DA:233,0
DA:206,0
DA:211,0
DA:212,0
DA:215,0
DA:217,0
DA:219,0
DA:220,0
DA:225,0
DA:226,0
DA:228,0
DA:229,0
DA:232,0
DA:233,0
end_of_record
SF:/usr/include/c++/9/bits/stl_vector.h
FN:94,_ZNSt12_Vector_baseIN6parser6prefixESaIS1_EE17_Vector_impl_dataC2Ev
FNDA:0,_ZNSt12_Vector_baseIN6parser6prefixESaIS1_EE17_Vector_impl_dataC2Ev
FN:94,_ZNSt12_Vector_baseIPN2ht11hashed_pairIN6parser6prefixEiEESaIS5_EE17_Vector_impl_dataC2Ev
FNDA:1,_ZNSt12_Vector_baseIPN2ht11hashed_pairIN6parser6prefixEiEESaIS5_EE17_Vector_impl_dataC2Ev
FN:128,_ZNSt12_Vector_baseIPN2ht11hashed_pairIN6parser6prefixEiEESaIS5_EE12_Vector_implC2Ev
FNDA:1,_ZNSt12_Vector_baseIPN2ht11hashed_pairIN6parser6prefixEiEESaIS5_EE12_Vector_implC2Ev
FN:128,_ZNSt12_Vector_baseIN6parser6prefixESaIS1_EE12_Vector_implC2Ev
FNDA:1,_ZNSt12_Vector_baseIN6parser6prefixESaIS1_EE12_Vector_implC2Ev
FN:273,_ZNSt12_Vector_baseIN6parser6prefixESaIS1_EE19_M_get_Tp_allocatorEv
FNDA:0,_ZNSt12_Vector_baseIN6parser6prefixESaIS1_EE19_M_get_Tp_allocatorEv
FN:273,_ZNSt12_Vector_baseIPN2ht11hashed_pairIN6parser6prefixEiEESaIS5_EE19_M_get_Tp_allocatorEv
FNDA:0,_ZNSt12_Vector_baseIPN2ht11hashed_pairIN6parser6prefixEiEESaIS5_EE19_M_get_Tp_allocatorEv
FN:277,_ZNKSt12_Vector_baseIN6parser6prefixESaIS1_EE19_M_get_Tp_allocatorEv
FNDA:0,_ZNKSt12_Vector_baseIN6parser6prefixESaIS1_EE19_M_get_Tp_allocatorEv
FN:277,_ZNKSt12_Vector_baseIPN2ht11hashed_pairIN6parser6prefixEiEESaIS5_EE19_M_get_Tp_allocatorEv
FNDA:6,_ZNKSt12_Vector_baseIPN2ht11hashed_pairIN6parser6prefixEiEESaIS5_EE19_M_get_Tp_allocatorEv
FN:285,_ZNSt12_Vector_baseIN6parser6prefixESaIS1_EEC2Ev
FNDA:1,_ZNSt12_Vector_baseIN6parser6prefixESaIS1_EEC2Ev
FN:285,_ZNSt12_Vector_baseIPN2ht11hashed_pairIN6parser6prefixEiEESaIS5_EEC2Ev
FNDA:1,_ZNSt12_Vector_baseIPN2ht11hashed_pairIN6parser6prefixEiEESaIS5_EEC2Ev
FN:330,_ZNSt12_Vector_baseIPN2ht11hashed_pairIN6parser6prefixEiEESaIS5_EED2Ev
FNDA:0,_ZNSt12_Vector_baseIPN2ht11hashed_pairIN6parser6prefixEiEESaIS5_EED2Ev
FN:330,_ZNSt12_Vector_baseIN6parser6prefixESaIS1_EED2Ev
FNDA:0,_ZNSt12_Vector_baseIN6parser6prefixESaIS1_EED2Ev
FN:340,_ZNSt12_Vector_baseIPN2ht11hashed_pairIN6parser6prefixEiEESaIS5_EE11_M_allocateEm
FNDA:3,_ZNSt12_Vector_baseIPN2ht11hashed_pairIN6parser6prefixEiEESaIS5_EE11_M_allocateEm
FN:340,_ZNSt12_Vector_baseIN6parser6prefixESaIS1_EE11_M_allocateEm
FNDA:0,_ZNSt12_Vector_baseIN6parser6prefixESaIS1_EE11_M_allocateEm
FN:347,_ZNSt12_Vector_baseIN6parser6prefixESaIS1_EE13_M_deallocateEPS1_m
FNDA:0,_ZNSt12_Vector_baseIN6parser6prefixESaIS1_EE13_M_deallocateEPS1_m
FN:347,_ZNSt12_Vector_baseIPN2ht11hashed_pairIN6parser6prefixEiEESaIS5_EE13_M_deallocateEPS5_m
FNDA:0,_ZNSt12_Vector_baseIPN2ht11hashed_pairIN6parser6prefixEiEESaIS5_EE13_M_deallocateEPS5_m
FN:428,_ZNSt6vectorIPN2ht11hashed_pairIN6parser6prefixEiEESaIS5_EE19_S_nothrow_relocateESt17integral_constantIbLb1EE
FNDA:6,_ZNSt6vectorIPN2ht11hashed_pairIN6parser6prefixEiEESaIS5_EE19_S_nothrow_relocateESt17integral_constantIbLb1EE
FN:441,_ZNSt6vectorIPN2ht11hashed_pairIN6parser6prefixEiEESaIS5_EE15_S_use_relocateEv
FNDA:6,_ZNSt6vectorIPN2ht11hashed_pairIN6parser6prefixEiEESaIS5_EE15_S_use_relocateEv
FN:450,_ZNSt6vectorIPN2ht11hashed_pairIN6parser6prefixEiEESaIS5_EE14_S_do_relocateEPS5_S8_S8_RS6_St17integral_constantIbLb1EE
FNDA:6,_ZNSt6vectorIPN2ht11hashed_pairIN6parser6prefixEiEESaIS5_EE14_S_do_relocateEPS5_S8_S8_RS6_St17integral_constantIbLb1EE
FN:462,_ZNSt6vectorIPN2ht11hashed_pairIN6parser6prefixEiEESaIS5_EE11_S_relocateEPS5_S8_S8_RS6_
FNDA:6,_ZNSt6vectorIPN2ht11hashed_pairIN6parser6prefixEiEESaIS5_EE11_S_relocateEPS5_S8_S8_RS6_
FN:484,_ZNSt6vectorIPN2ht11hashed_pairIN6parser6prefixEiEESaIS5_EEC2Ev
FNDA:1,_ZNSt6vectorIPN2ht11hashed_pairIN6parser6prefixEiEESaIS5_EEC2Ev
FN:484,_ZNSt6vectorIN6parser6prefixESaIS1_EEC2Ev
FNDA:1,_ZNSt6vectorIN6parser6prefixESaIS1_EEC2Ev
FN:675,_ZNSt6vectorIN6parser6prefixESaIS1_EED2Ev
FNDA:0,_ZNSt6vectorIN6parser6prefixESaIS1_EED2Ev
FN:675,_ZNSt6vectorIPN2ht11hashed_pairIN6parser6prefixEiEESaIS5_EED2Ev
FNDA:0,_ZNSt6vectorIPN2ht11hashed_pairIN6parser6prefixEiEESaIS5_EED2Ev
FN:808,_ZNSt6vectorIPN2ht11hashed_pairIN6parser6prefixEiEESaIS5_EE5beginEv
FNDA:3,_ZNSt6vectorIPN2ht11hashed_pairIN6parser6prefixEiEESaIS5_EE5beginEv
FN:808,_ZNSt6vectorIN6parser6prefixESaIS1_EE5beginEv
FNDA:0,_ZNSt6vectorIN6parser6prefixESaIS1_EE5beginEv
FN:817,_ZNKSt6vectorIN6parser6prefixESaIS1_EE5beginEv
FNDA:0,_ZNKSt6vectorIN6parser6prefixESaIS1_EE5beginEv
FN:826,_ZNSt6vectorIN6parser6prefixESaIS1_EE3endEv
FNDA:0,_ZNSt6vectorIN6parser6prefixESaIS1_EE3endEv
FN:826,_ZNSt6vectorIPN2ht11hashed_pairIN6parser6prefixEiEESaIS5_EE3endEv
FNDA:3,_ZNSt6vectorIPN2ht11hashed_pairIN6parser6prefixEiEESaIS5_EE3endEv
FN:835,_ZNKSt6vectorIN6parser6prefixESaIS1_EE3endEv
FNDA:0,_ZNKSt6vectorIN6parser6prefixESaIS1_EE3endEv
FN:915,_ZNKSt6vectorIN6parser6prefixESaIS1_EE4sizeEv
FNDA:0,_ZNKSt6vectorIN6parser6prefixESaIS1_EE4sizeEv
FN:915,_ZNKSt6vectorIPN2ht11hashed_pairIN6parser6prefixEiEESaIS5_EE4sizeEv
FNDA:12,_ZNKSt6vectorIPN2ht11hashed_pairIN6parser6prefixEiEESaIS5_EE4sizeEv
FN:920,_ZNKSt6vectorIPN2ht11hashed_pairIN6parser6prefixEiEESaIS5_EE8max_sizeEv
FNDA:6,_ZNKSt6vectorIPN2ht11hashed_pairIN6parser6prefixEiEESaIS5_EE8max_sizeEv
FN:995,_ZNKSt6vectorIN6parser6prefixESaIS1_EE8capacityEv
FNDA:1,_ZNKSt6vectorIN6parser6prefixESaIS1_EE8capacityEv
FN:1184,_ZNSt6vectorIPN2ht11hashed_pairIN6parser6prefixEiEESaIS5_EE9push_backERKS5_
FNDA:3,_ZNSt6vectorIPN2ht11hashed_pairIN6parser6prefixEiEESaIS5_EE9push_backERKS5_
FN:1495,_ZNSt6vectorIN6parser6prefixESaIS1_EE5clearEv
FNDA:0,_ZNSt6vectorIN6parser6prefixESaIS1_EE5clearEv
FN:1505,_ZNSt6vectorIN6parser6prefixESaIS1_EE20_M_allocate_and_copyIN9__gnu_cxx17__normal_iteratorIPKS1_S3_EEEEPS1_mT_SB_
FNDA:1,_ZNSt6vectorIN6parser6prefixESaIS1_EE20_M_allocate_and_copyIN9__gnu_cxx17__normal_iteratorIPKS1_S3_EEEEPS1_mT_SB_
FN:1753,_ZNKSt6vectorIPN2ht11hashed_pairIN6parser6prefixEiEESaIS5_EE12_M_check_lenEmPKc
FNDA:3,_ZNKSt6vectorIPN2ht11hashed_pairIN6parser6prefixEiEESaIS5_EE12_M_check_lenEmPKc
FN:1773,_ZNSt6vectorIPN2ht11hashed_pairIN6parser6prefixEiEESaIS5_EE11_S_max_sizeERKS6_
FNDA:6,_ZNSt6vectorIPN2ht11hashed_pairIN6parser6prefixEiEESaIS5_EE11_S_max_sizeERKS6_
FN:1789,_ZNSt6vectorIN6parser6prefixESaIS1_EE15_M_erase_at_endEPS1_
FNDA:0,_ZNSt6vectorIN6parser6prefixESaIS1_EE15_M_erase_at_endEPS1_
DA:94,1
DA:95,1
DA:96,1
DA:94,0
DA:95,0
DA:96,0
DA:128,1
DA:130,1
DA:131,1
DA:128,1
DA:130,1
DA:131,1
DA:273,0
DA:274,0
DA:273,0
DA:274,0
DA:277,6
DA:278,6
DA:277,0
DA:278,0
DA:285,1
DA:285,1
DA:330,0
DA:332,0
DA:333,0
DA:334,0
DA:330,0
DA:332,0
DA:333,0
DA:334,0
DA:340,3
DA:343,3
DA:340,0
DA:343,0
DA:347,0
DA:350,0
DA:351,0
DA:352,0
DA:347,0
DA:350,0
DA:351,0
DA:352,0
DA:428,6
DA:433,6
DA:441,6
DA:446,6
DA:450,6
DA:453,6
DA:462,6
DA:466,6
DA:484,1
DA:484,1
DA:675,0
DA:677,0
DA:678,0
DA:680,0
DA:675,0
DA:677,0
DA:678,0
DA:680,0
DA:808,3
DA:809,3
DA:808,0
DA:809,0
DA:817,0
DA:818,0
DA:826,3
DA:827,3
DA:826,0
DA:827,0
DA:835,0
DA:836,0
DA:915,12
DA:916,12
DA:915,0
DA:916,0
DA:920,6
DA:921,6
DA:995,1
DA:996,1
DA:997,1
DA:1184,3
DA:1186,3
DA:1189,0
DA:1191,0
DA:1195,3
DA:1196,3
DA:1495,0
DA:1496,0
DA:1505,1
DA:1508,1
DA:1511,1
DA:1512,1
DA:1513,1
DA:1515,0
DA:1517,0
DA:1518,0
DA:1753,3
DA:1755,3
DA:1756,0
DA:1758,3
DA:1759,3
DA:1773,6
DA:1778,6
DA:1780,6
DA:1781,6
DA:1789,0
DA:1791,0
DA:1793,0
DA:1794,0
DA:1795,0
DA:1798,0
end_of_record
SF:/usr/include/c++/9/bits/stl_iterator_base_funcs.h
FN:98,_ZSt10__distanceIPcENSt15iterator_traitsIT_E15difference_typeES2_S2_St26random_access_iterator_tag
FNDA:0,_ZSt10__distanceIPcENSt15iterator_traitsIT_E15difference_typeES2_S2_St26random_access_iterator_tag
FN:98,_ZSt10__distanceIPKcENSt15iterator_traitsIT_E15difference_typeES3_S3_St26random_access_iterator_tag
FNDA:0,_ZSt10__distanceIPKcENSt15iterator_traitsIT_E15difference_typeES3_S3_St26random_access_iterator_tag
FN:138,_ZSt8distanceIPcENSt15iterator_traitsIT_E15difference_typeES2_S2_
FNDA:0,_ZSt8distanceIPcENSt15iterator_traitsIT_E15difference_typeES2_S2_
FN:138,_ZSt8distanceIPKcENSt15iterator_traitsIT_E15difference_typeES3_S3_
FNDA:0,_ZSt8distanceIPKcENSt15iterator_traitsIT_E15difference_typeES3_S3_
DA:98,0
DA:104,0
DA:98,0
DA:104,0
DA:138,0
DA:141,0
DA:142,0
DA:138,0
DA:141,0
DA:142,0
end_of_record
SF:/usr/include/c++/9/ext/alloc_traits.h
FN:97,_ZN9__gnu_cxx14__alloc_traitsISaIcEcE17_S_select_on_copyERKS1_
FNDA:0,_ZN9__gnu_cxx14__alloc_traitsISaIcEcE17_S_select_on_copyERKS1_
FN:103,_ZN9__gnu_cxx14__alloc_traitsISaIN6parser6prefixEES2_E27_S_propagate_on_copy_assignEv
FNDA:1,_ZN9__gnu_cxx14__alloc_traitsISaIN6parser6prefixEES2_E27_S_propagate_on_copy_assignEv
FN:112,_ZN9__gnu_cxx14__alloc_traitsISaIN6parser6prefixEES2_E15_S_always_equalEv
FNDA:0,_ZN9__gnu_cxx14__alloc_traitsISaIN6parser6prefixEES2_E15_S_always_equalEv
DA:97,0
DA:98,0
DA:103,1
DA:104,1
DA:112,0
DA:113,0
end_of_record
SF:/home/gab/Desktop/repos/cpp_projects/cresser/src/parser/hashtable.h
FN:36,_ZN2ht20hash_table_exceptionC2ENSt7__cxx1112basic_stringIcSt11char_traitsIcESaIcEEE
FNDA:1,_ZN2ht20hash_table_exceptionC2ENSt7__cxx1112basic_stringIcSt11char_traitsIcESaIcEEE
FN:40,_ZNK2ht20hash_table_exception4whatEv
FNDA:0,_ZNK2ht20hash_table_exception4whatEv
FN:48,_ZN2ht8opt_pairIN6parser6prefixEiEC2Ev
FNDA:13,_ZN2ht8opt_pairIN6parser6prefixEiEC2Ev
FN:49,_ZN2ht8opt_pairIN6parser6prefixEiE5firstEv
FNDA:0,_ZN2ht8opt_pairIN6parser6prefixEiE5firstEv
FN:52,_ZN2ht8opt_pairIN6parser6prefixEiE6secondEv
FNDA:0,_ZN2ht8opt_pairIN6parser6prefixEiE6secondEv
FN:55,_ZN2ht8opt_pairIN6parser6prefixEiE7isEmptyEv
FNDA:4,_ZN2ht8opt_pairIN6parser6prefixEiE7isEmptyEv
FN:62,_ZN2ht11hashed_pairIN6parser6prefixEiEC2ES2_i
FNDA:3,_ZN2ht11hashed_pairIN6parser6prefixEiEC2ES2_i
FN:67,_ZN2ht11hashed_pairIN6parser6prefixEiE7isEmptyEv
FNDA:7,_ZN2ht11hashed_pairIN6parser6prefixEiE7isEmptyEv
FN:69,_ZN2ht11hashed_pairIN6parser6prefixEiE5firstEv
FNDA:7,_ZN2ht11hashed_pairIN6parser6prefixEiE5firstEv
FN:72,_ZN2ht11hashed_pairIN6parser6prefixEiE6secondEv
FNDA:6,_ZN2ht11hashed_pairIN6parser6prefixEiE6secondEv
FN:98,_ZN2ht9hashtableIN6parser6prefixEiED0Ev
FNDA:0,_ZN2ht9hashtableIN6parser6prefixEiED0Ev
FN:98,_ZN2ht9hashtableIN6parser6prefixEiED2Ev
FNDA:0,_ZN2ht9hashtableIN6parser6prefixEiED2Ev
FN:113,_ZN2ht9hashtableIN6parser6prefixEiEC2Ev
FNDA:1,_ZN2ht9hashtableIN6parser6prefixEiEC2Ev
FN:128,_ZN2ht9hashtableIN6parser6prefixEiE3addES2_i
FNDA:3,_ZN2ht9hashtableIN6parser6prefixEiE3addES2_i
FN:187,_ZN2ht9hashtableIN6parser6prefixEiE6searchES2_
FNDA:7,_ZN2ht9hashtableIN6parser6prefixEiE6searchES2_
DA:36,1
DA:37,1
DA:38,1
DA:40,0
DA:41,0
DA:48,13
DA:49,0
DA:50,0
DA:52,0
DA:53,0
DA:55,4
DA:62,3
DA:63,3
DA:64,3
DA:65,3
DA:67,7
DA:69,7
DA:70,7
DA:72,6
DA:73,6
DA:98,0
DA:98,0
DA:113,1
DA:114,1
DA:115,1
DA:116,1
DA:117,11
DA:118,10
DA:120,1
DA:128,3
DA:129,3
DA:130,3
DA:131,3
DA:135,0
DA:136,0
DA:137,0
DA:140,0
DA:141,0
DA:143,0
DA:144,0
DA:145,0
DA:146,0
DA:148,0
DA:149,0
DA:150,0
DA:152,0
DA:154,0
DA:155,0
DA:156,0
DA:158,0
DA:159,0
DA:161,0
DA:163,0
DA:168,3
DA:170,3
DA:171,3
DA:172,3
DA:173,3
DA:175,3
DA:176,3
DA:178,0
DA:180,0
DA:187,7
DA:188,7
DA:189,8
DA:190,8
DA:191,1
DA:193,7
DA:194,6
DA:197,0
end_of_record
SF:/usr/include/c++/9/ext/new_allocator.h
FN:80,_ZN9__gnu_cxx13new_allocatorIPN2ht11hashed_pairIN6parser6prefixEiEEEC2Ev
FNDA:1,_ZN9__gnu_cxx13new_allocatorIPN2ht11hashed_pairIN6parser6prefixEiEEEC2Ev
FN:80,_ZN9__gnu_cxx13new_allocatorIN6parser6prefixEEC2Ev
FNDA:0,_ZN9__gnu_cxx13new_allocatorIN6parser6prefixEEC2Ev
FN:80,_ZN9__gnu_cxx13new_allocatorIcEC2Ev
FNDA:0,_ZN9__gnu_cxx13new_allocatorIcEC2Ev
FN:83,_ZN9__gnu_cxx13new_allocatorIcEC2ERKS1_
FNDA:0,_ZN9__gnu_cxx13new_allocatorIcEC2ERKS1_
FN:89,_ZN9__gnu_cxx13new_allocatorIPN2ht11hashed_pairIN6parser6prefixEiEEED2Ev
FNDA:0,_ZN9__gnu_cxx13new_allocatorIPN2ht11hashed_pairIN6parser6prefixEiEEED2Ev
FN:89,_ZN9__gnu_cxx13new_allocatorIN6parser6prefixEED2Ev
FNDA:0,_ZN9__gnu_cxx13new_allocatorIN6parser6prefixEED2Ev
FN:89,_ZN9__gnu_cxx13new_allocatorIcED2Ev
FNDA:0,_ZN9__gnu_cxx13new_allocatorIcED2Ev
FN:102,_ZN9__gnu_cxx13new_allocatorIPN2ht11hashed_pairIN6parser6prefixEiEEE8allocateEmPKv
FNDA:3,_ZN9__gnu_cxx13new_allocatorIPN2ht11hashed_pairIN6parser6prefixEiEEE8allocateEmPKv
FN:102,_ZN9__gnu_cxx13new_allocatorIN6parser6prefixEE8allocateEmPKv
FNDA:0,_ZN9__gnu_cxx13new_allocatorIN6parser6prefixEE8allocateEmPKv
FN:119,_ZN9__gnu_cxx13new_allocatorIPN2ht11hashed_pairIN6parser6prefixEiEEE10deallocateEPS6_m
FNDA:0,_ZN9__gnu_cxx13new_allocatorIPN2ht11hashed_pairIN6parser6prefixEiEEE10deallocateEPS6_m
FN:119,_ZN9__gnu_cxx13new_allocatorIN6parser6prefixEE10deallocateEPS2_m
FNDA:0,_ZN9__gnu_cxx13new_allocatorIN6parser6prefixEE10deallocateEPS2_m
FN:132,_ZNK9__gnu_cxx13new_allocatorIPN2ht11hashed_pairIN6parser6prefixEiEEE8max_sizeEv
FNDA:9,_ZNK9__gnu_cxx13new_allocatorIPN2ht11hashed_pairIN6parser6prefixEiEEE8max_sizeEv
FN:132,_ZNK9__gnu_cxx13new_allocatorIN6parser6prefixEE8max_sizeEv
FNDA:0,_ZNK9__gnu_cxx13new_allocatorIN6parser6prefixEE8max_sizeEv
FN:144,_ZN9__gnu_cxx13new_allocatorIPN2ht11hashed_pairIN6parser6prefixEiEEE9constructIS6_JRKS6_EEEvPT_DpOT0_
FNDA:3,_ZN9__gnu_cxx13new_allocatorIPN2ht11hashed_pairIN6parser6prefixEiEEE9constructIS6_JRKS6_EEEvPT_DpOT0_
FN:151,_ZN9__gnu_cxx13new_allocatorIPN2ht11hashed_pairIN6parser6prefixEiEEE7destroyIS6_EEvPT_
FNDA:0,_ZN9__gnu_cxx13new_allocatorIPN2ht11hashed_pairIN6parser6prefixEiEEE7destroyIS6_EEvPT_
DA:80,1
DA:80,0
DA:80,0
DA:83,0
DA:89,0
DA:89,0
DA:89,0
DA:102,3
DA:104,3
DA:105,0
DA:114,3
DA:102,0
DA:104,0
DA:105,0
DA:114,0
DA:119,0
DA:128,0
DA:129,0
DA:119,0
DA:128,0
DA:129,0
DA:132,9
DA:135,9
DA:132,0
DA:135,0
DA:144,3
DA:147,3
DA:151,0
DA:153,0
end_of_record
TN:
SF:/usr/include/c++/9/bits/basic_string.h
FN:243,_ZNSt7__cxx1112basic_stringIcSt11char_traitsIcESaIcEE16_M_construct_auxIPcEEvT_S7_St12__false_type
FNDA:0,_ZNSt7__cxx1112basic_stringIcSt11char_traitsIcESaIcEE16_M_construct_auxIPcEEvT_S7_St12__false_type
FN:243,_ZNSt7__cxx1112basic_stringIcSt11char_traitsIcESaIcEE16_M_construct_auxIPKcEEvT_S8_St12__false_type
FNDA:0,_ZNSt7__cxx1112basic_stringIcSt11char_traitsIcESaIcEE16_M_construct_auxIPKcEEvT_S8_St12__false_type
FN:263,_ZNSt7__cxx1112basic_stringIcSt11char_traitsIcESaIcEE12_M_constructIPcEEvT_S7_
FNDA:0,_ZNSt7__cxx1112basic_stringIcSt11char_traitsIcESaIcEE12_M_constructIPcEEvT_S7_
FN:263,_ZNSt7__cxx1112basic_stringIcSt11char_traitsIcESaIcEE12_M_constructIPKcEEvT_S8_
FNDA:0,_ZNSt7__cxx1112basic_stringIcSt11char_traitsIcESaIcEE12_M_constructIPKcEEvT_S8_
FN:6020,_ZStplIcSt11char_traitsIcESaIcEENSt7__cxx1112basic_stringIT_T0_T1_EERKS8_SA_
FNDA:832,_ZStplIcSt11char_traitsIcESaIcEENSt7__cxx1112basic_stringIT_T0_T1_EERKS8_SA_
FN:6073,_ZStplIcSt11char_traitsIcESaIcEENSt7__cxx1112basic_stringIT_T0_T1_EERKS8_S5_
FNDA:3494,_ZStplIcSt11char_traitsIcESaIcEENSt7__cxx1112basic_stringIT_T0_T1_EERKS8_S5_
FN:6091,_ZStplIcSt11char_traitsIcESaIcEENSt7__cxx1112basic_stringIT_T0_T1_EERKS8_OS8_
FNDA:832,_ZStplIcSt11char_traitsIcESaIcEENSt7__cxx1112basic_stringIT_T0_T1_EERKS8_OS8_
DA:243,0
DA:247,0
DA:248,0
DA:243,0
DA:247,0
DA:248,0
DA:263,0
DA:266,0
DA:267,0
DA:263,0
DA:266,0
DA:267,0
DA:6020,832
DA:6023,832
DA:6024,832
DA:6025,832
DA:6073,3494
DA:6077,3494
DA:6078,3494
DA:6079,3494
DA:6091,832
DA:6093,832
end_of_record
SF:/usr/include/c++/9/bits/exception.h
FN:63,_ZNSt9exceptionC2Ev
FNDA:0,_ZNSt9exceptionC2Ev
DA:63,0
end_of_record
SF:/usr/include/c++/9/bits/char_traits.h
FN:329,_ZNSt11char_traitsIcE6lengthEPKc
FNDA:0,_ZNSt11char_traitsIcE6lengthEPKc
FN:361,_ZNSt11char_traitsIcE4copyEPcPKcm
FNDA:0,_ZNSt11char_traitsIcE4copyEPcPKcm
DA:329,0
DA:335,0
DA:361,0
DA:363,0
DA:364,0
DA:365,0
end_of_record
SF:/usr/include/c++/9/bits/stl_iterator_base_types.h
FN:205,_ZSt19__iterator_categoryIPcENSt15iterator_traitsIT_E17iterator_categoryERKS2_
FNDA:0,_ZSt19__iterator_categoryIPcENSt15iterator_traitsIT_E17iterator_categoryERKS2_
FN:205,_ZSt19__iterator_categoryIPKcENSt15iterator_traitsIT_E17iterator_categoryERKS3_
FNDA:0,_ZSt19__iterator_categoryIPKcENSt15iterator_traitsIT_E17iterator_categoryERKS3_
DA:205,0
DA:206,0
DA:205,0
DA:206,0
end_of_record
SF:/usr/include/c++/9/ext/type_traits.h
FN:152,_ZN9__gnu_cxx17__is_null_pointerIcEEbPT_
FNDA:0,_ZN9__gnu_cxx17__is_null_pointerIcEEbPT_
FN:152,_ZN9__gnu_cxx17__is_null_pointerIKcEEbPT_
FNDA:0,_ZN9__gnu_cxx17__is_null_pointerIKcEEbPT_
DA:152,0
DA:153,0
DA:152,0
DA:153,0
end_of_record
SF:/usr/include/c++/9/iostream
end_of_record
SF:/home/gab/Desktop/repos/cpp_projects/cresser/src/encoding/lz77encoder.h
FN:28,_ZN15lz77_encoding_t6lengthEv
FNDA:832,_ZN15lz77_encoding_t6lengthEv
DA:28,832
end_of_record
SF:/usr/include/c++/9/bits/basic_string.tcc
FN:206,_ZNSt7__cxx1112basic_stringIcSt11char_traitsIcESaIcEE12_M_constructIPcEEvT_S7_St20forward_iterator_tag
FNDA:0,_ZNSt7__cxx1112basic_stringIcSt11char_traitsIcESaIcEE12_M_constructIPcEEvT_S7_St20forward_iterator_tag
FN:206,_ZNSt7__cxx1112basic_stringIcSt11char_traitsIcESaIcEE12_M_constructIPKcEEvT_S8_St20forward_iterator_tag
FNDA:0,_ZNSt7__cxx1112basic_stringIcSt11char_traitsIcESaIcEE12_M_constructIPKcEEvT_S8_St20forward_iterator_tag
FN:1174,_ZStplIcSt11char_traitsIcESaIcEENSt7__cxx1112basic_stringIT_T0_T1_EES5_RKS8_
FNDA:833,_ZStplIcSt11char_traitsIcESaIcEENSt7__cxx1112basic_stringIT_T0_T1_EES5_RKS8_
DA:206,0
DA:211,0
DA:212,0
DA:215,0
DA:217,0
DA:219,0
DA:220,0
DA:225,0
DA:226,0
DA:228,0
DA:229,0
DA:232,0
DA:233,0
DA:206,0
DA:211,0
DA:212,0
DA:215,0
DA:217,0
DA:219,0
DA:220,0
DA:225,0
DA:226,0
DA:228,0
DA:229,0
DA:232,0
DA:233,0
DA:1174,833
DA:1178,833
DA:1179,833
DA:1180,833
DA:1181,833
DA:1182,833
DA:1183,833
end_of_record
SF:/usr/include/c++/9/bits/alloc_traits.h
FN:514,_ZNSt16allocator_traitsISaIcEE37select_on_container_copy_constructionERKS0_
FNDA:0,_ZNSt16allocator_traitsISaIcEE37select_on_container_copy_constructionERKS0_
DA:514,0
DA:515,0
end_of_record
SF:/usr/include/c++/9/bits/move.h
FN:99,_ZSt4moveIRNSt7__cxx1112basic_stringIcSt11char_traitsIcESaIcEEEEONSt16remove_referenceIT_E4typeEOS8_
FNDA:832,_ZSt4moveIRNSt7__cxx1112basic_stringIcSt11char_traitsIcESaIcEEEEONSt16remove_referenceIT_E4typeEOS8_
FN:99,_ZSt4moveIRSaIcEEONSt16remove_referenceIT_E4typeEOS3_
FNDA:0,_ZSt4moveIRSaIcEEONSt16remove_referenceIT_E4typeEOS3_
DA:99,832
DA:100,832
DA:99,0
DA:100,0
end_of_record
SF:/home/gab/Desktop/repos/cpp_projects/cresser/src/encoding/lz77encoder.cpp
FN:24,_ZNK14bad_int_values4whatEv
FNDA:0,_ZNK14bad_int_values4whatEv
FN:32,_ZN15lz77_encoding_tC2Ectt
FNDA:833,_ZN15lz77_encoding_tC2Ectt
FN:54,_Z5splitB5cxx11t
FNDA:835,_Z5splitB5cxx11t
FN:64,_ZN15lz77_encoding_t7toWriteB5cxx11Ev
FNDA:833,_ZN15lz77_encoding_t7toWriteB5cxx11Ev
FN:72,_ZN15lz77_encoding_t11from_stringENSt7__cxx1112basic_stringIcSt11char_traitsIcESaIcEEES5_
FNDA:832,_ZN15lz77_encoding_t11from_stringENSt7__cxx1112basic_stringIcSt11char_traitsIcESaIcEEES5_
FN:108,_Z11lz77_encodeNSt7__cxx1112basic_stringIcSt11char_traitsIcESaIcEEE
FNDA:7,_Z11lz77_encodeNSt7__cxx1112basic_stringIcSt11char_traitsIcESaIcEEE
FN:150,_Z7combineNSt7__cxx1112basic_stringIcSt11char_traitsIcESaIcEEE
FNDA:1616,_Z7combineNSt7__cxx1112basic_stringIcSt11char_traitsIcESaIcEEE
FN:160,_Z11lz77_decodeNSt7__cxx1112basic_stringIcSt11char_traitsIcESaIcEEE
FNDA:6,_Z11lz77_decodeNSt7__cxx1112basic_stringIcSt11char_traitsIcESaIcEEE
DA:24,0
DA:26,0
DA:32,833
DA:34,833
DA:41,833
DA:42,0
DA:45,833
DA:46,833
DA:47,833
DA:48,833
DA:49,833
DA:50,833
DA:51,833
DA:52,833
DA:54,835
DA:55,835
DA:56,835
DA:57,835
DA:58,835
DA:59,835
DA:60,835
DA:64,833
DA:65,833
DA:68,1666
DA:69,1666
DA:72,832
DA:76,832
DA:77,832
DA:78,1664
DA:79,1664
DA:80,832
DA:81,6
DA:83,3615
DA:84,3609
DA:86,3609
DA:87,3609
DA:88,3609
DA:90,743
DA:91,110
DA:94,633
DA:96,2866
DA:97,2866
DA:98,2866
DA:99,77
DA:104,6
DA:105,12
DA:108,7
DA:110,7
DA:111,7
DA:112,7
DA:113,7
DA:114,7
DA:116,7
DA:117,7
DA:119,7
DA:120,839
DA:123,838
DA:125,838
DA:126,838
DA:127,838
DA:129,6
DA:132,832
DA:133,832
DA:134,832
DA:136,0
DA:137,0
DA:141,832
DA:142,832
DA:143,832
DA:146,1
DA:150,1616
DA:151,1616
DA:152,1616
DA:153,1616
DA:154,1616
DA:155,1616
DA:156,1616
DA:160,6
DA:161,6
DA:162,1
DA:164,10
DA:166,785
DA:168,780
DA:170,780
DA:171,780
DA:172,780
DA:173,780
DA:174,106
DA:175,106
DA:177,674
DA:178,0
DA:179,0
DA:180,0
DA:181,0
DA:182,0
DA:183,0
DA:186,1348
DA:187,674
DA:188,674
DA:189,674
DA:191,15
DA:192,181
DA:193,166
DA:196,674
DA:198,5
end_of_record
SF:/usr/include/c++/9/ext/new_allocator.h
FN:80,_ZN9__gnu_cxx13new_allocatorIcEC2Ev
FNDA:0,_ZN9__gnu_cxx13new_allocatorIcEC2Ev
FN:83,_ZN9__gnu_cxx13new_allocatorIcEC2ERKS1_
FNDA:0,_ZN9__gnu_cxx13new_allocatorIcEC2ERKS1_
FN:89,_ZN9__gnu_cxx13new_allocatorIcED2Ev
FNDA:0,_ZN9__gnu_cxx13new_allocatorIcED2Ev
DA:80,0
DA:83,0
DA:89,0
end_of_record
SF:/usr/include/c++/9/bits/stl_iterator_base_funcs.h
FN:98,_ZSt10__distanceIPcENSt15iterator_traitsIT_E15difference_typeES2_S2_St26random_access_iterator_tag
FNDA:0,_ZSt10__distanceIPcENSt15iterator_traitsIT_E15difference_typeES2_S2_St26random_access_iterator_tag
FN:98,_ZSt10__distanceIPKcENSt15iterator_traitsIT_E15difference_typeES3_S3_St26random_access_iterator_tag
FNDA:0,_ZSt10__distanceIPKcENSt15iterator_traitsIT_E15difference_typeES3_S3_St26random_access_iterator_tag
FN:138,_ZSt8distanceIPcENSt15iterator_traitsIT_E15difference_typeES2_S2_
FNDA:0,_ZSt8distanceIPcENSt15iterator_traitsIT_E15difference_typeES2_S2_
FN:138,_ZSt8distanceIPKcENSt15iterator_traitsIT_E15difference_typeES3_S3_
FNDA:0,_ZSt8distanceIPKcENSt15iterator_traitsIT_E15difference_typeES3_S3_
DA:98,0
DA:104,0
DA:98,0
DA:104,0
DA:138,0
DA:141,0
DA:142,0
DA:138,0
DA:141,0
DA:142,0
end_of_record
SF:/usr/include/c++/9/ext/alloc_traits.h
FN:97,_ZN9__gnu_cxx14__alloc_traitsISaIcEcE17_S_select_on_copyERKS1_
FNDA:0,_ZN9__gnu_cxx14__alloc_traitsISaIcEcE17_S_select_on_copyERKS1_
DA:97,0
DA:98,0
end_of_record
TN:
SF:/usr/include/c++/9/bits/stl_iterator_base_funcs.h
FN:98,_ZSt10__distanceIPcENSt15iterator_traitsIT_E15difference_typeES2_S2_St26random_access_iterator_tag
FNDA:0,_ZSt10__distanceIPcENSt15iterator_traitsIT_E15difference_typeES2_S2_St26random_access_iterator_tag
FN:98,_ZSt10__distanceIPKcENSt15iterator_traitsIT_E15difference_typeES3_S3_St26random_access_iterator_tag
FNDA:0,_ZSt10__distanceIPKcENSt15iterator_traitsIT_E15difference_typeES3_S3_St26random_access_iterator_tag
FN:138,_ZSt8distanceIPcENSt15iterator_traitsIT_E15difference_typeES2_S2_
FNDA:0,_ZSt8distanceIPcENSt15iterator_traitsIT_E15difference_typeES2_S2_
FN:138,_ZSt8distanceIPKcENSt15iterator_traitsIT_E15difference_typeES3_S3_
FNDA:0,_ZSt8distanceIPKcENSt15iterator_traitsIT_E15difference_typeES3_S3_
DA:98,0
DA:104,0
DA:98,0
DA:104,0
DA:138,0
DA:141,0
DA:142,0
DA:138,0
DA:141,0
DA:142,0
end_of_record
SF:/usr/include/c++/9/ext/alloc_traits.h
FN:97,_ZN9__gnu_cxx14__alloc_traitsISaIcEcE17_S_select_on_copyERKS1_
FNDA:0,_ZN9__gnu_cxx14__alloc_traitsISaIcEcE17_S_select_on_copyERKS1_
DA:97,0
DA:98,0
end_of_record
SF:/usr/include/c++/9/ext/new_allocator.h
FN:80,_ZN9__gnu_cxx13new_allocatorIcEC2Ev
FNDA:0,_ZN9__gnu_cxx13new_allocatorIcEC2Ev
FN:83,_ZN9__gnu_cxx13new_allocatorIcEC2ERKS1_
FNDA:0,_ZN9__gnu_cxx13new_allocatorIcEC2ERKS1_
FN:89,_ZN9__gnu_cxx13new_allocatorIcED2Ev
FNDA:0,_ZN9__gnu_cxx13new_allocatorIcED2Ev
FN:102,_ZN9__gnu_cxx13new_allocatorIcE8allocateEmPKv
FNDA:9,_ZN9__gnu_cxx13new_allocatorIcE8allocateEmPKv
FN:119,_ZN9__gnu_cxx13new_allocatorIcE10deallocateEPcm
FNDA:9,_ZN9__gnu_cxx13new_allocatorIcE10deallocateEPcm
FN:132,_ZNK9__gnu_cxx13new_allocatorIcE8max_sizeEv
FNDA:27,_ZNK9__gnu_cxx13new_allocatorIcE8max_sizeEv
FN:144,_ZN9__gnu_cxx13new_allocatorIcE9constructIcJcEEEvPT_DpOT0_
FNDA:156,_ZN9__gnu_cxx13new_allocatorIcE9constructIcJcEEEvPT_DpOT0_
FN:151,_ZN9__gnu_cxx13new_allocatorIcE7destroyIcEEvPT_
FNDA:0,_ZN9__gnu_cxx13new_allocatorIcE7destroyIcEEvPT_
DA:80,0
DA:83,0
DA:89,0
DA:102,9
DA:104,9
DA:105,0
DA:114,9
DA:119,9
DA:128,9
DA:129,9
DA:132,27
DA:135,27
DA:144,156
DA:147,156
DA:151,0
DA:153,0
end_of_record
SF:/usr/include/c++/9/new
FN:173,_ZnwmPv
FNDA:156,_ZnwmPv
DA:173,156
DA:174,156
end_of_record
SF:/usr/include/c++/9/bits/move.h
FN:74,_ZSt7forwardIcEOT_RNSt16remove_referenceIS0_E4typeE
FNDA:477,_ZSt7forwardIcEOT_RNSt16remove_referenceIS0_E4typeE
FN:99,_ZSt4moveIRSaIcEEONSt16remove_referenceIT_E4typeEOS3_
FNDA:0,_ZSt4moveIRSaIcEEONSt16remove_referenceIT_E4typeEOS3_
DA:74,477
DA:75,477
DA:99,0
DA:100,0
end_of_record
SF:/usr/include/c++/9/bits/alloc_traits.h
FN:443,_ZNSt16allocator_traitsISaIcEE8allocateERS0_m
FNDA:9,_ZNSt16allocator_traitsISaIcEE8allocateERS0_m
FN:469,_ZNSt16allocator_traitsISaIcEE10deallocateERS0_Pcm
FNDA:9,_ZNSt16allocator_traitsISaIcEE10deallocateERS0_Pcm
FN:482,_ZNSt16allocator_traitsISaIcEE9constructIcJcEEEvRS0_PT_DpOT0_
FNDA:156,_ZNSt16allocator_traitsISaIcEE9constructIcJcEEEvRS0_PT_DpOT0_
FN:495,_ZNSt16allocator_traitsISaIcEE7destroyIcEEvRS0_PT_
FNDA:0,_ZNSt16allocator_traitsISaIcEE7destroyIcEEvRS0_PT_
FN:505,_ZNSt16allocator_traitsISaIcEE8max_sizeERKS0_
FNDA:18,_ZNSt16allocator_traitsISaIcEE8max_sizeERKS0_
FN:514,_ZNSt16allocator_traitsISaIcEE37select_on_container_copy_constructionERKS0_
FNDA:0,_ZNSt16allocator_traitsISaIcEE37select_on_container_copy_constructionERKS0_
DA:443,9
DA:444,9
DA:469,9
DA:470,9
DA:482,156
DA:484,156
DA:495,0
DA:497,0
DA:505,18
DA:506,18
DA:514,0
DA:515,0
end_of_record
SF:/home/gab/Desktop/repos/cpp_projects/cresser/src/fileio/operations.cpp
FN:23,_Z5rfromNSt7__cxx1112basic_stringIcSt11char_traitsIcESaIcEEE
FNDA:1,_Z5rfromNSt7__cxx1112basic_stringIcSt11char_traitsIcESaIcEEE
FN:32,_Z4wrtoNSt7__cxx1112basic_stringIcSt11char_traitsIcESaIcEEES4_
FNDA:1,_Z4wrtoNSt7__cxx1112basic_stringIcSt11char_traitsIcESaIcEEES4_
DA:23,1
DA:24,2
DA:25,2
DA:26,2
DA:27,1
DA:28,1
DA:29,2
DA:32,1
DA:33,2
DA:34,1
DA:35,1
DA:36,1
DA:38,1
DA:39,1
end_of_record
SF:/usr/include/c++/9/bits/stl_vector.h
FN:94,_ZNSt12_Vector_baseIcSaIcEE17_Vector_impl_dataC2Ev
FNDA:1,_ZNSt12_Vector_baseIcSaIcEE17_Vector_impl_dataC2Ev
FN:133,_ZNSt12_Vector_baseIcSaIcEE12_Vector_implC2ERKS0_
FNDA:1,_ZNSt12_Vector_baseIcSaIcEE12_Vector_implC2ERKS0_
FN:273,_ZNSt12_Vector_baseIcSaIcEE19_M_get_Tp_allocatorEv
FNDA:19,_ZNSt12_Vector_baseIcSaIcEE19_M_get_Tp_allocatorEv
FN:277,_ZNKSt12_Vector_baseIcSaIcEE19_M_get_Tp_allocatorEv
FNDA:18,_ZNKSt12_Vector_baseIcSaIcEE19_M_get_Tp_allocatorEv
FN:290,_ZNSt12_Vector_baseIcSaIcEEC2ERKS0_
FNDA:1,_ZNSt12_Vector_baseIcSaIcEEC2ERKS0_
FN:330,_ZNSt12_Vector_baseIcSaIcEED2Ev
FNDA:1,_ZNSt12_Vector_baseIcSaIcEED2Ev
FN:340,_ZNSt12_Vector_baseIcSaIcEE11_M_allocateEm
FNDA:9,_ZNSt12_Vector_baseIcSaIcEE11_M_allocateEm
FN:347,_ZNSt12_Vector_baseIcSaIcEE13_M_deallocateEPcm
FNDA:10,_ZNSt12_Vector_baseIcSaIcEE13_M_deallocateEPcm
FN:428,_ZNSt6vectorIcSaIcEE19_S_nothrow_relocateESt17integral_constantIbLb1EE
FNDA:18,_ZNSt6vectorIcSaIcEE19_S_nothrow_relocateESt17integral_constantIbLb1EE
FN:441,_ZNSt6vectorIcSaIcEE15_S_use_relocateEv
FNDA:18,_ZNSt6vectorIcSaIcEE15_S_use_relocateEv
FN:450,_ZNSt6vectorIcSaIcEE14_S_do_relocateEPcS2_S2_RS0_St17integral_constantIbLb1EE
FNDA:18,_ZNSt6vectorIcSaIcEE14_S_do_relocateEPcS2_S2_RS0_St17integral_constantIbLb1EE
FN:462,_ZNSt6vectorIcSaIcEE11_S_relocateEPcS2_S2_RS0_
FNDA:18,_ZNSt6vectorIcSaIcEE11_S_relocateEPcS2_S2_RS0_
FN:650,_ZNSt6vectorIcSaIcEEC2ISt19istreambuf_iteratorIcSt11char_traitsIcEEvEET_S7_RKS0_
FNDA:1,_ZNSt6vectorIcSaIcEEC2ISt19istreambuf_iteratorIcSt11char_traitsIcEEvEET_S7_RKS0_
FN:675,_ZNSt6vectorIcSaIcEED2Ev
FNDA:1,_ZNSt6vectorIcSaIcEED2Ev
FN:808,_ZNSt6vectorIcSaIcEE5beginEv
FNDA:10,_ZNSt6vectorIcSaIcEE5beginEv
FN:826,_ZNSt6vectorIcSaIcEE3endEv
FNDA:10,_ZNSt6vectorIcSaIcEE3endEv
FN:915,_ZNKSt6vectorIcSaIcEE4sizeEv
FNDA:36,_ZNKSt6vectorIcSaIcEE4sizeEv
FN:920,_ZNKSt6vectorIcSaIcEE8max_sizeEv
FNDA:18,_ZNKSt6vectorIcSaIcEE8max_sizeEv
FN:1495,_ZNSt6vectorIcSaIcEE5clearEv
FNDA:0,_ZNSt6vectorIcSaIcEE5clearEv
FN:1555,_ZNSt6vectorIcSaIcEE19_M_range_initializeISt19istreambuf_iteratorIcSt11char_traitsIcEEEEvT_S7_St18input_iterator_tag
FNDA:1,_ZNSt6vectorIcSaIcEE19_M_range_initializeISt19istreambuf_iteratorIcSt11char_traitsIcEEEEvT_S7_St18input_iterator_tag
FN:1753,_ZNKSt6vectorIcSaIcEE12_M_check_lenEmPKc
FNDA:9,_ZNKSt6vectorIcSaIcEE12_M_check_lenEmPKc
FN:1773,_ZNSt6vectorIcSaIcEE11_S_max_sizeERKS0_
FNDA:18,_ZNSt6vectorIcSaIcEE11_S_max_sizeERKS0_
FN:1789,_ZNSt6vectorIcSaIcEE15_M_erase_at_endEPc
FNDA:0,_ZNSt6vectorIcSaIcEE15_M_erase_at_endEPc
DA:94,1
DA:95,1
DA:96,1
DA:133,1
DA:134,1
DA:135,1
DA:273,19
DA:274,19
DA:277,18
DA:278,18
DA:290,1
DA:291,1
DA:330,1
DA:332,1
DA:333,1
DA:334,1
DA:340,9
DA:343,9
DA:347,10
DA:350,10
DA:351,9
DA:352,10
DA:428,18
DA:433,18
DA:441,18
DA:446,18
DA:450,18
DA:453,18
DA:462,18
DA:466,18
DA:650,1
DA:652,1
DA:654,1
DA:655,1
DA:656,1
DA:675,1
DA:677,1
DA:678,1
DA:680,1
DA:808,10
DA:809,10
DA:826,10
DA:827,10
DA:915,36
DA:916,36
DA:920,18
DA:921,18
DA:1495,0
DA:1496,0
DA:1555,157
DA:1559,157
DA:1561,156
DA:1565,0
DA:1566,0
DA:1567,0
DA:1569,1
DA:1753,9
DA:1755,9
DA:1756,0
DA:1758,9
DA:1759,9
DA:1773,18
DA:1778,18
DA:1780,18
DA:1781,18
DA:1789,0
DA:1791,0
DA:1793,0
DA:1794,0
DA:1795,0
DA:1798,0
end_of_record
SF:/usr/include/c++/9/bits/basic_string.tcc
FN:206,_ZNSt7__cxx1112basic_stringIcSt11char_traitsIcESaIcEE12_M_constructIPcEEvT_S7_St20forward_iterator_tag
FNDA:0,_ZNSt7__cxx1112basic_stringIcSt11char_traitsIcESaIcEE12_M_constructIPcEEvT_S7_St20forward_iterator_tag
FN:206,_ZNSt7__cxx1112basic_stringIcSt11char_traitsIcESaIcEE12_M_constructIPKcEEvT_S8_St20forward_iterator_tag
FNDA:0,_ZNSt7__cxx1112basic_stringIcSt11char_traitsIcESaIcEE12_M_constructIPKcEEvT_S8_St20forward_iterator_tag
DA:206,0
DA:211,0
DA:212,0
DA:215,0
DA:217,0
DA:219,0
DA:220,0
DA:225,0
DA:226,0
DA:228,0
DA:229,0
DA:232,0
DA:233,0
DA:206,0
DA:211,0
DA:212,0
DA:215,0
DA:217,0
DA:219,0
DA:220,0
DA:225,0
DA:226,0
DA:228,0
DA:229,0
DA:232,0
DA:233,0
end_of_record
SF:/usr/include/c++/9/bits/stl_construct.h
FN:117,_ZNSt12_Destroy_auxILb1EE9__destroyIPcEEvT_S3_
FNDA:1,_ZNSt12_Destroy_auxILb1EE9__destroyIPcEEvT_S3_
FN:127,_ZSt8_DestroyIPcEvT_S1_
FNDA:1,_ZSt8_DestroyIPcEvT_S1_
FN:203,_ZSt8_DestroyIPccEvT_S1_RSaIT0_E
FNDA:1,_ZSt8_DestroyIPccEvT_S1_RSaIT0_E
DA:117,1
DA:127,1
DA:137,1
DA:138,1
DA:203,1
DA:206,1
DA:207,1
end_of_record
SF:/usr/include/c++/9/bits/stl_iterator_base_types.h
FN:205,_ZSt19__iterator_categoryIPcENSt15iterator_traitsIT_E17iterator_categoryERKS2_
FNDA:0,_ZSt19__iterator_categoryIPcENSt15iterator_traitsIT_E17iterator_categoryERKS2_
FN:205,_ZSt19__iterator_categoryIPKcENSt15iterator_traitsIT_E17iterator_categoryERKS3_
FNDA:0,_ZSt19__iterator_categoryIPKcENSt15iterator_traitsIT_E17iterator_categoryERKS3_
FN:205,_ZSt19__iterator_categoryISt19istreambuf_iteratorIcSt11char_traitsIcEEENSt15iterator_traitsIT_E17iterator_categoryERKS5_
FNDA:1,_ZSt19__iterator_categoryISt19istreambuf_iteratorIcSt11char_traitsIcEEENSt15iterator_traitsIT_E17iterator_categoryERKS5_
DA:205,0
DA:206,0
DA:205,0
DA:206,0
DA:205,1
DA:206,1
end_of_record
SF:/usr/include/c++/9/bits/stl_uninitialized.h
FN:99,_ZNSt20__uninitialized_copyILb1EE13__uninit_copyISt13move_iteratorIPcES3_EET0_T_S6_S5_
FNDA:0,_ZNSt20__uninitialized_copyILb1EE13__uninit_copyISt13move_iteratorIPcES3_EET0_T_S6_S5_
FN:115,_ZSt18uninitialized_copyISt13move_iteratorIPcES1_ET0_T_S4_S3_
FNDA:0,_ZSt18uninitialized_copyISt13move_iteratorIPcES1_ET0_T_S4_S3_
FN:305,_ZSt22__uninitialized_copy_aISt13move_iteratorIPcES1_cET0_T_S4_S3_RSaIT1_E
FNDA:0,_ZSt22__uninitialized_copy_aISt13move_iteratorIPcES1_cET0_T_S4_S3_RSaIT1_E
FN:323,_ZSt34__uninitialized_move_if_noexcept_aIPcS0_SaIcEET0_T_S3_S2_RT1_
FNDA:0,_ZSt34__uninitialized_move_if_noexcept_aIPcS0_SaIcEET0_T_S3_S2_RT1_
FN:924,_ZSt14__relocate_a_1IccENSt9enable_ifIXsrSt24__is_bitwise_relocatableIT_vE5valueEPS2_E4typeES4_S4_S4_RSaIT0_E
FNDA:18,_ZSt14__relocate_a_1IccENSt9enable_ifIXsrSt24__is_bitwise_relocatableIT_vE5valueEPS2_E4typeES4_S4_S4_RSaIT0_E
FN:958,_ZSt12__relocate_aIPcS0_SaIcEET0_T_S3_S2_RT1_
FNDA:18,_ZSt12__relocate_aIPcS0_SaIcEET0_T_S3_S2_RT1_
DA:99,0
DA:101,0
DA:115,0
DA:134,0
DA:140,0
DA:305,0
DA:307,0
DA:323,0
DA:329,0
DA:330,0
DA:924,18
DA:927,18
DA:928,18
DA:929,8
DA:930,18
DA:958,18
DA:964,18
DA:966,18
end_of_record
SF:/usr/include/c++/9/bits/vector.tcc
FN:109,_ZNSt6vectorIcSaIcEE12emplace_backIJcEEEvDpOT_
FNDA:156,_ZNSt6vectorIcSaIcEE12emplace_backIJcEEEvDpOT_
FN:426,_ZNSt6vectorIcSaIcEE17_M_realloc_insertIJcEEEvN9__gnu_cxx17__normal_iteratorIPcS1_EEDpOT_
FNDA:9,_ZNSt6vectorIcSaIcEE17_M_realloc_insertIJcEEEvN9__gnu_cxx17__normal_iteratorIPcS1_EEDpOT_
DA:109,156
DA:112,156
DA:115,147
DA:117,147
DA:121,9
DA:125,156
DA:426,9
DA:435,9
DA:437,9
DA:438,9
DA:439,9
DA:440,9
DA:441,9
DA:449,9
DA:456,9
DA:459,9
DA:461,9
DA:462,9
DA:464,9
DA:466,9
DA:467,9
DA:474,0
DA:475,0
DA:477,0
DA:481,0
DA:482,0
DA:485,0
DA:487,0
DA:488,0
DA:491,0
DA:492,0
DA:493,0
DA:496,9
DA:498,0
DA:500,9
DA:501,9
DA:502,9
DA:503,9
DA:504,9
DA:505,9
end_of_record
SF:/usr/include/c++/9/bits/stl_algobase.h
FN:198,_ZSt3minImERKT_S2_S2_
FNDA:18,_ZSt3minImERKT_S2_S2_
FN:222,_ZSt3maxImERKT_S2_S2_
FNDA:9,_ZSt3maxImERKT_S2_S2_
FN:280,_ZSt12__niter_baseIPcET_S1_
FNDA:54,_ZSt12__niter_baseIPcET_S1_
FN:295,_ZSt12__niter_wrapIPcET_RKS1_S1_
FNDA:0,_ZSt12__niter_wrapIPcET_RKS1_S1_
FN:375,_ZNSt11__copy_moveILb1ELb1ESt26random_access_iterator_tagE8__copy_mIcEEPT_PKS3_S6_S4_
FNDA:0,_ZNSt11__copy_moveILb1ELb1ESt26random_access_iterator_tagE8__copy_mIcEEPT_PKS3_S6_S4_
FN:393,_ZSt13__copy_move_aILb1EPcS0_ET1_T0_S2_S1_
FNDA:0,_ZSt13__copy_move_aILb1EPcS0_ET1_T0_S2_S1_
FN:438,_ZSt14__copy_move_a2ILb1EPcS0_ET1_T0_S2_S1_
FNDA:0,_ZSt14__copy_move_a2ILb1EPcS0_ET1_T0_S2_S1_
FN:465,_ZSt4copyISt13move_iteratorIPcES1_ET0_T_S4_S3_
FNDA:0,_ZSt4copyISt13move_iteratorIPcES1_ET0_T_S4_S3_
DA:198,18
DA:203,18
DA:204,0
DA:205,18
DA:222,9
DA:227,9
DA:228,1
DA:229,8
DA:280,54
DA:282,54
DA:295,0
DA:296,0
DA:375,0
DA:384,0
DA:385,0
DA:386,0
DA:387,0
DA:393,0
DA:398,0
DA:404,0
DA:438,0
DA:440,0
DA:443,0
DA:465,0
DA:474,0
end_of_record
SF:/usr/include/c++/9/ext/type_traits.h
FN:152,_ZN9__gnu_cxx17__is_null_pointerIcEEbPT_
FNDA:0,_ZN9__gnu_cxx17__is_null_pointerIcEEbPT_
FN:152,_ZN9__gnu_cxx17__is_null_pointerIKcEEbPT_
FNDA:0,_ZN9__gnu_cxx17__is_null_pointerIKcEEbPT_
DA:152,0
DA:153,0
DA:152,0
DA:153,0
end_of_record
SF:/usr/include/c++/9/iostream
end_of_record
SF:/usr/include/c++/9/bits/stl_iterator.h
FN:806,_ZN9__gnu_cxx17__normal_iteratorIPcSt6vectorIcSaIcEEEC2ERKS1_
FNDA:20,_ZN9__gnu_cxx17__normal_iteratorIPcSt6vectorIcSaIcEEEC2ERKS1_
FN:819,_ZNK9__gnu_cxx17__normal_iteratorIPcSt6vectorIcSaIcEEEdeEv
FNDA:156,_ZNK9__gnu_cxx17__normal_iteratorIPcSt6vectorIcSaIcEEEdeEv
FN:827,_ZN9__gnu_cxx17__normal_iteratorIPcSt6vectorIcSaIcEEEppEv
FNDA:156,_ZN9__gnu_cxx17__normal_iteratorIPcSt6vectorIcSaIcEEEppEv
FN:871,_ZNK9__gnu_cxx17__normal_iteratorIPcSt6vectorIcSaIcEEE4baseEv
FNDA:350,_ZNK9__gnu_cxx17__normal_iteratorIPcSt6vectorIcSaIcEEE4baseEv
FN:907,_ZN9__gnu_cxxneIPcSt6vectorIcSaIcEEEEbRKNS_17__normal_iteratorIT_T0_EESA_
FNDA:157,_ZN9__gnu_cxxneIPcSt6vectorIcSaIcEEEEbRKNS_17__normal_iteratorIT_T0_EESA_
FN:989,_ZN9__gnu_cxxmiIPcSt6vectorIcSaIcEEEENS_17__normal_iteratorIT_T0_E15difference_typeERKS8_SB_
FNDA:9,_ZN9__gnu_cxxmiIPcSt6vectorIcSaIcEEEENS_17__normal_iteratorIT_T0_E15difference_typeERKS8_SB_
FN:1057,_ZNSt13move_iteratorIPcEC2ES0_
FNDA:0,_ZNSt13move_iteratorIPcEC2ES0_
FN:1066,_ZNKSt13move_iteratorIPcE4baseEv
FNDA:0,_ZNKSt13move_iteratorIPcE4baseEv
FN:1242,_ZSt32__make_move_if_noexcept_iteratorIcSt13move_iteratorIPcEET0_PT_
FNDA:0,_ZSt32__make_move_if_noexcept_iteratorIcSt13move_iteratorIPcEET0_PT_
FN:1262,_ZSt12__miter_baseIPcEDTcl12__miter_basecldtfp_4baseEEESt13move_iteratorIT_E
FNDA:0,_ZSt12__miter_baseIPcEDTcl12__miter_basecldtfp_4baseEEESt13move_iteratorIT_E
DA:806,20
DA:807,20
DA:819,156
DA:820,156
DA:827,156
DA:829,156
DA:830,156
DA:871,350
DA:872,350
DA:907,157
DA:910,157
DA:989,9
DA:992,9
DA:1057,0
DA:1058,0
DA:1066,0
DA:1067,0
DA:1242,0
DA:1243,0
DA:1262,0
DA:1264,0
end_of_record
SF:/usr/include/c++/9/bits/streambuf_iterator.h
FN:107,_ZNSt19istreambuf_iteratorIcSt11char_traitsIcEEC2Ev
FNDA:1,_ZNSt19istreambuf_iteratorIcSt11char_traitsIcEEC2Ev
FN:117,_ZNSt19istreambuf_iteratorIcSt11char_traitsIcEEC2ERSi
FNDA:1,_ZNSt19istreambuf_iteratorIcSt11char_traitsIcEEC2ERSi
FN:133,_ZNKSt19istreambuf_iteratorIcSt11char_traitsIcEEdeEv
FNDA:156,_ZNKSt19istreambuf_iteratorIcSt11char_traitsIcEEdeEv
FN:149,_ZNSt19istreambuf_iteratorIcSt11char_traitsIcEEppEv
FNDA:156,_ZNSt19istreambuf_iteratorIcSt11char_traitsIcEEppEv
FN:181,_ZNKSt19istreambuf_iteratorIcSt11char_traitsIcEE5equalERKS2_
FNDA:157,_ZNKSt19istreambuf_iteratorIcSt11char_traitsIcEE5equalERKS2_
FN:186,_ZNKSt19istreambuf_iteratorIcSt11char_traitsIcEE6_M_getEv
FNDA:470,_ZNKSt19istreambuf_iteratorIcSt11char_traitsIcEE6_M_getEv
FN:195,_ZNKSt19istreambuf_iteratorIcSt11char_traitsIcEE9_M_at_eofEv
FNDA:314,_ZNKSt19istreambuf_iteratorIcSt11char_traitsIcEE9_M_at_eofEv
FN:199,_ZNSt19istreambuf_iteratorIcSt11char_traitsIcEE9_S_is_eofEi
FNDA:940,_ZNSt19istreambuf_iteratorIcSt11char_traitsIcEE9_S_is_eofEi
FN:214,_ZStneIcSt11char_traitsIcEEbRKSt19istreambuf_iteratorIT_T0_ES7_
FNDA:157,_ZStneIcSt11char_traitsIcEEbRKSt19istreambuf_iteratorIT_T0_ES7_
DA:107,1
DA:108,1
DA:117,1
DA:118,1
DA:133,156
DA:135,156
DA:144,312
DA:149,156
DA:156,156
DA:157,156
DA:158,156
DA:181,157
DA:182,157
DA:186,470
DA:188,470
DA:189,470
DA:190,1
DA:191,470
DA:195,314
DA:196,314
DA:199,940
DA:201,940
DA:202,940
DA:214,157
DA:216,157
end_of_record
SF:/usr/include/c++/9/bits/char_traits.h
FN:329,_ZNSt11char_traitsIcE6lengthEPKc
FNDA:0,_ZNSt11char_traitsIcE6lengthEPKc
FN:361,_ZNSt11char_traitsIcE4copyEPcPKcm
FNDA:0,_ZNSt11char_traitsIcE4copyEPcPKcm
FN:377,_ZNSt11char_traitsIcE12to_char_typeERKi
FNDA:156,_ZNSt11char_traitsIcE12to_char_typeERKi
FN:387,_ZNSt11char_traitsIcE11eq_int_typeERKiS2_
FNDA:940,_ZNSt11char_traitsIcE11eq_int_typeERKiS2_
FN:391,_ZNSt11char_traitsIcE3eofEv
FNDA:158,_ZNSt11char_traitsIcE3eofEv
DA:329,0
DA:335,0
DA:361,0
DA:363,0
DA:364,0
DA:365,0
DA:377,156
DA:378,156
DA:387,940
DA:388,940
DA:391,158
DA:392,158
end_of_record
SF:/usr/include/c++/9/bits/cpp_type_traits.h
FN:428,_ZSt12__miter_baseIPcET_S1_
FNDA:0,_ZSt12__miter_baseIPcET_S1_
DA:428,0
DA:429,0
end_of_record
SF:/usr/include/c++/9/bits/basic_string.h
FN:243,_ZNSt7__cxx1112basic_stringIcSt11char_traitsIcESaIcEE16_M_construct_auxIPcEEvT_S7_St12__false_type
FNDA:0,_ZNSt7__cxx1112basic_stringIcSt11char_traitsIcESaIcEE16_M_construct_auxIPcEEvT_S7_St12__false_type
FN:243,_ZNSt7__cxx1112basic_stringIcSt11char_traitsIcESaIcEE16_M_construct_auxIPKcEEvT_S8_St12__false_type
FNDA:0,_ZNSt7__cxx1112basic_stringIcSt11char_traitsIcESaIcEE16_M_construct_auxIPKcEEvT_S8_St12__false_type
FN:263,_ZNSt7__cxx1112basic_stringIcSt11char_traitsIcESaIcEE12_M_constructIPcEEvT_S7_
FNDA:0,_ZNSt7__cxx1112basic_stringIcSt11char_traitsIcESaIcEE12_M_constructIPcEEvT_S7_
FN:263,_ZNSt7__cxx1112basic_stringIcSt11char_traitsIcESaIcEE12_M_constructIPKcEEvT_S8_
FNDA:0,_ZNSt7__cxx1112basic_stringIcSt11char_traitsIcESaIcEE12_M_constructIPKcEEvT_S8_
FN:6073,_ZStplIcSt11char_traitsIcESaIcEENSt7__cxx1112basic_stringIT_T0_T1_EERKS8_S5_
FNDA:271,_ZStplIcSt11char_traitsIcESaIcEENSt7__cxx1112basic_stringIT_T0_T1_EERKS8_S5_
DA:243,0
DA:247,0
DA:248,0
DA:243,0
DA:247,0
DA:248,0
DA:263,0
DA:266,0
DA:267,0
DA:263,0
DA:266,0
DA:267,0
DA:6073,271
DA:6077,271
DA:6078,271
DA:6079,271
end_of_record
SF:/usr/include/c++/9/bits/stl_numeric.h
FN:132,_ZSt10accumulateIN9__gnu_cxx17__normal_iteratorIPcSt6vectorIcSaIcEEEENSt7__cxx1112basic_stringIcSt11char_traitsIcES4_EEET0_T_SD_SC_
FNDA:1,_ZSt10accumulateIN9__gnu_cxx17__normal_iteratorIPcSt6vectorIcSaIcEEEENSt7__cxx1112basic_stringIcSt11char_traitsIcES4_EEET0_T_SD_SC_
DA:132,157
DA:138,157
DA:139,156
DA:140,1
end_of_record
TN:
SF:/usr/include/c++/9/bits/stl_vector.h
FN:94,_ZNSt12_Vector_baseIPN2ht11hashed_pairI3valS2_EESaIS4_EE17_Vector_impl_dataC2Ev
FNDA:1,_ZNSt12_Vector_baseIPN2ht11hashed_pairI3valS2_EESaIS4_EE17_Vector_impl_dataC2Ev
FN:94,_ZNSt12_Vector_baseIPN2ht11hashed_pairI3valNSt7__cxx1112basic_stringIcSt11char_traitsIcESaIcEEEEESaISA_EE17_Vector_impl_dataC2Ev
FNDA:1,_ZNSt12_Vector_baseIPN2ht11hashed_pairI3valNSt7__cxx1112basic_stringIcSt11char_traitsIcESaIcEEEEESaISA_EE17_Vector_impl_dataC2Ev
FN:128,_ZNSt12_Vector_baseIPN2ht11hashed_pairI3valNSt7__cxx1112basic_stringIcSt11char_traitsIcESaIcEEEEESaISA_EE12_Vector_implC2Ev
FNDA:1,_ZNSt12_Vector_baseIPN2ht11hashed_pairI3valNSt7__cxx1112basic_stringIcSt11char_traitsIcESaIcEEEEESaISA_EE12_Vector_implC2Ev
FN:128,_ZNSt12_Vector_baseIPN2ht11hashed_pairI3valS2_EESaIS4_EE12_Vector_implC2Ev
FNDA:1,_ZNSt12_Vector_baseIPN2ht11hashed_pairI3valS2_EESaIS4_EE12_Vector_implC2Ev
FN:273,_ZNSt12_Vector_baseIPN2ht11hashed_pairI3valS2_EESaIS4_EE19_M_get_Tp_allocatorEv
FNDA:23,_ZNSt12_Vector_baseIPN2ht11hashed_pairI3valS2_EESaIS4_EE19_M_get_Tp_allocatorEv
FN:273,_ZNSt12_Vector_baseIPN2ht11hashed_pairI3valNSt7__cxx1112basic_stringIcSt11char_traitsIcESaIcEEEEESaISA_EE19_M_get_Tp_allocatorEv
FNDA:11,_ZNSt12_Vector_baseIPN2ht11hashed_pairI3valNSt7__cxx1112basic_stringIcSt11char_traitsIcESaIcEEEEESaISA_EE19_M_get_Tp_allocatorEv
FN:277,_ZNKSt12_Vector_baseIPN2ht11hashed_pairI3valNSt7__cxx1112basic_stringIcSt11char_traitsIcESaIcEEEEESaISA_EE19_M_get_Tp_allocatorEv
FNDA:10,_ZNKSt12_Vector_baseIPN2ht11hashed_pairI3valNSt7__cxx1112basic_stringIcSt11char_traitsIcESaIcEEEEESaISA_EE19_M_get_Tp_allocatorEv
FN:277,_ZNKSt12_Vector_baseIPN2ht11hashed_pairI3valS2_EESaIS4_EE19_M_get_Tp_allocatorEv
FNDA:22,_ZNKSt12_Vector_baseIPN2ht11hashed_pairI3valS2_EESaIS4_EE19_M_get_Tp_allocatorEv
FN:285,_ZNSt12_Vector_baseIPN2ht11hashed_pairI3valS2_EESaIS4_EEC2Ev
FNDA:1,_ZNSt12_Vector_baseIPN2ht11hashed_pairI3valS2_EESaIS4_EEC2Ev
FN:285,_ZNSt12_Vector_baseIPN2ht11hashed_pairI3valNSt7__cxx1112basic_stringIcSt11char_traitsIcESaIcEEEEESaISA_EEC2Ev
FNDA:1,_ZNSt12_Vector_baseIPN2ht11hashed_pairI3valNSt7__cxx1112basic_stringIcSt11char_traitsIcESaIcEEEEESaISA_EEC2Ev
FN:330,_ZNSt12_Vector_baseIPN2ht11hashed_pairI3valNSt7__cxx1112basic_stringIcSt11char_traitsIcESaIcEEEEESaISA_EED2Ev
FNDA:1,_ZNSt12_Vector_baseIPN2ht11hashed_pairI3valNSt7__cxx1112basic_stringIcSt11char_traitsIcESaIcEEEEESaISA_EED2Ev
FN:330,_ZNSt12_Vector_baseIPN2ht11hashed_pairI3valS2_EESaIS4_EED2Ev
FNDA:1,_ZNSt12_Vector_baseIPN2ht11hashed_pairI3valS2_EESaIS4_EED2Ev
FN:340,_ZNSt12_Vector_baseIPN2ht11hashed_pairI3valS2_EESaIS4_EE11_M_allocateEm
FNDA:11,_ZNSt12_Vector_baseIPN2ht11hashed_pairI3valS2_EESaIS4_EE11_M_allocateEm
FN:340,_ZNSt12_Vector_baseIPN2ht11hashed_pairI3valNSt7__cxx1112basic_stringIcSt11char_traitsIcESaIcEEEEESaISA_EE11_M_allocateEm
FNDA:5,_ZNSt12_Vector_baseIPN2ht11hashed_pairI3valNSt7__cxx1112basic_stringIcSt11char_traitsIcESaIcEEEEESaISA_EE11_M_allocateEm
FN:347,_ZNSt12_Vector_baseIPN2ht11hashed_pairI3valNSt7__cxx1112basic_stringIcSt11char_traitsIcESaIcEEEEESaISA_EE13_M_deallocateEPSA_m
FNDA:6,_ZNSt12_Vector_baseIPN2ht11hashed_pairI3valNSt7__cxx1112basic_stringIcSt11char_traitsIcESaIcEEEEESaISA_EE13_M_deallocateEPSA_m
FN:347,_ZNSt12_Vector_baseIPN2ht11hashed_pairI3valS2_EESaIS4_EE13_M_deallocateEPS4_m
FNDA:12,_ZNSt12_Vector_baseIPN2ht11hashed_pairI3valS2_EESaIS4_EE13_M_deallocateEPS4_m
FN:428,_ZNSt6vectorIPN2ht11hashed_pairI3valNSt7__cxx1112basic_stringIcSt11char_traitsIcESaIcEEEEESaISA_EE19_S_nothrow_relocateESt17integral_constantIbLb1EE
FNDA:10,_ZNSt6vectorIPN2ht11hashed_pairI3valNSt7__cxx1112basic_stringIcSt11char_traitsIcESaIcEEEEESaISA_EE19_S_nothrow_relocateESt17integral_constantIbLb1EE
FN:428,_ZNSt6vectorIPN2ht11hashed_pairI3valS2_EESaIS4_EE19_S_nothrow_relocateESt17integral_constantIbLb1EE
FNDA:22,_ZNSt6vectorIPN2ht11hashed_pairI3valS2_EESaIS4_EE19_S_nothrow_relocateESt17integral_constantIbLb1EE
FN:441,_ZNSt6vectorIPN2ht11hashed_pairI3valNSt7__cxx1112basic_stringIcSt11char_traitsIcESaIcEEEEESaISA_EE15_S_use_relocateEv
FNDA:10,_ZNSt6vectorIPN2ht11hashed_pairI3valNSt7__cxx1112basic_stringIcSt11char_traitsIcESaIcEEEEESaISA_EE15_S_use_relocateEv
FN:441,_ZNSt6vectorIPN2ht11hashed_pairI3valS2_EESaIS4_EE15_S_use_relocateEv
FNDA:22,_ZNSt6vectorIPN2ht11hashed_pairI3valS2_EESaIS4_EE15_S_use_relocateEv
FN:450,_ZNSt6vectorIPN2ht11hashed_pairI3valS2_EESaIS4_EE14_S_do_relocateEPS4_S7_S7_RS5_St17integral_constantIbLb1EE
FNDA:22,_ZNSt6vectorIPN2ht11hashed_pairI3valS2_EESaIS4_EE14_S_do_relocateEPS4_S7_S7_RS5_St17integral_constantIbLb1EE
FN:450,_ZNSt6vectorIPN2ht11hashed_pairI3valNSt7__cxx1112basic_stringIcSt11char_traitsIcESaIcEEEEESaISA_EE14_S_do_relocateEPSA_SD_SD_RSB_St17integral_constantIbLb1EE
FNDA:10,_ZNSt6vectorIPN2ht11hashed_pairI3valNSt7__cxx1112basic_stringIcSt11char_traitsIcESaIcEEEEESaISA_EE14_S_do_relocateEPSA_SD_SD_RSB_St17integral_constantIbLb1EE
FN:462,_ZNSt6vectorIPN2ht11hashed_pairI3valNSt7__cxx1112basic_stringIcSt11char_traitsIcESaIcEEEEESaISA_EE11_S_relocateEPSA_SD_SD_RSB_
FNDA:10,_ZNSt6vectorIPN2ht11hashed_pairI3valNSt7__cxx1112basic_stringIcSt11char_traitsIcESaIcEEEEESaISA_EE11_S_relocateEPSA_SD_SD_RSB_
FN:462,_ZNSt6vectorIPN2ht11hashed_pairI3valS2_EESaIS4_EE11_S_relocateEPS4_S7_S7_RS5_
FNDA:22,_ZNSt6vectorIPN2ht11hashed_pairI3valS2_EESaIS4_EE11_S_relocateEPS4_S7_S7_RS5_
FN:484,_ZNSt6vectorIPN2ht11hashed_pairI3valNSt7__cxx1112basic_stringIcSt11char_traitsIcESaIcEEEEESaISA_EEC2Ev
FNDA:1,_ZNSt6vectorIPN2ht11hashed_pairI3valNSt7__cxx1112basic_stringIcSt11char_traitsIcESaIcEEEEESaISA_EEC2Ev
FN:484,_ZNSt6vectorIPN2ht11hashed_pairI3valS2_EESaIS4_EEC2Ev
FNDA:1,_ZNSt6vectorIPN2ht11hashed_pairI3valS2_EESaIS4_EEC2Ev
FN:675,_ZNSt6vectorIPN2ht11hashed_pairI3valS2_EESaIS4_EED2Ev
FNDA:1,_ZNSt6vectorIPN2ht11hashed_pairI3valS2_EESaIS4_EED2Ev
FN:675,_ZNSt6vectorIPN2ht11hashed_pairI3valNSt7__cxx1112basic_stringIcSt11char_traitsIcESaIcEEEEESaISA_EED2Ev
FNDA:1,_ZNSt6vectorIPN2ht11hashed_pairI3valNSt7__cxx1112basic_stringIcSt11char_traitsIcESaIcEEEEESaISA_EED2Ev
FN:808,_ZNSt6vectorIPN2ht11hashed_pairI3valS2_EESaIS4_EE5beginEv
FNDA:18,_ZNSt6vectorIPN2ht11hashed_pairI3valS2_EESaIS4_EE5beginEv
FN:808,_ZNSt6vectorIPN2ht11hashed_pairI3valNSt7__cxx1112basic_stringIcSt11char_traitsIcESaIcEEEEESaISA_EE5beginEv
FNDA:6,_ZNSt6vectorIPN2ht11hashed_pairI3valNSt7__cxx1112basic_stringIcSt11char_traitsIcESaIcEEEEESaISA_EE5beginEv
FN:826,_ZNSt6vectorIPN2ht11hashed_pairI3valS2_EESaIS4_EE3endEv
FNDA:18,_ZNSt6vectorIPN2ht11hashed_pairI3valS2_EESaIS4_EE3endEv
FN:826,_ZNSt6vectorIPN2ht11hashed_pairI3valNSt7__cxx1112basic_stringIcSt11char_traitsIcESaIcEEEEESaISA_EE3endEv
FNDA:6,_ZNSt6vectorIPN2ht11hashed_pairI3valNSt7__cxx1112basic_stringIcSt11char_traitsIcESaIcEEEEESaISA_EE3endEv
FN:915,_ZNKSt6vectorIPN2ht11hashed_pairI3valNSt7__cxx1112basic_stringIcSt11char_traitsIcESaIcEEEEESaISA_EE4sizeEv
FNDA:20,_ZNKSt6vectorIPN2ht11hashed_pairI3valNSt7__cxx1112basic_stringIcSt11char_traitsIcESaIcEEEEESaISA_EE4sizeEv
FN:915,_ZNKSt6vectorIPN2ht11hashed_pairI3valS2_EESaIS4_EE4sizeEv
FNDA:44,_ZNKSt6vectorIPN2ht11hashed_pairI3valS2_EESaIS4_EE4sizeEv
FN:920,_ZNKSt6vectorIPN2ht11hashed_pairI3valS2_EESaIS4_EE8max_sizeEv
FNDA:22,_ZNKSt6vectorIPN2ht11hashed_pairI3valS2_EESaIS4_EE8max_sizeEv
FN:920,_ZNKSt6vectorIPN2ht11hashed_pairI3valNSt7__cxx1112basic_stringIcSt11char_traitsIcESaIcEEEEESaISA_EE8max_sizeEv
FNDA:10,_ZNKSt6vectorIPN2ht11hashed_pairI3valNSt7__cxx1112basic_stringIcSt11char_traitsIcESaIcEEEEESaISA_EE8max_sizeEv
FN:1184,_ZNSt6vectorIPN2ht11hashed_pairI3valS2_EESaIS4_EE9push_backERKS4_
FNDA:1000,_ZNSt6vectorIPN2ht11hashed_pairI3valS2_EESaIS4_EE9push_backERKS4_
FN:1184,_ZNSt6vectorIPN2ht11hashed_pairI3valNSt7__cxx1112basic_stringIcSt11char_traitsIcESaIcEEEEESaISA_EE9push_backERKSA_
FNDA:10,_ZNSt6vectorIPN2ht11hashed_pairI3valNSt7__cxx1112basic_stringIcSt11char_traitsIcESaIcEEEEESaISA_EE9push_backERKSA_
FN:1753,_ZNKSt6vectorIPN2ht11hashed_pairI3valS2_EESaIS4_EE12_M_check_lenEmPKc
FNDA:11,_ZNKSt6vectorIPN2ht11hashed_pairI3valS2_EESaIS4_EE12_M_check_lenEmPKc
FN:1753,_ZNKSt6vectorIPN2ht11hashed_pairI3valNSt7__cxx1112basic_stringIcSt11char_traitsIcESaIcEEEEESaISA_EE12_M_check_lenEmPKc
FNDA:5,_ZNKSt6vectorIPN2ht11hashed_pairI3valNSt7__cxx1112basic_stringIcSt11char_traitsIcESaIcEEEEESaISA_EE12_M_check_lenEmPKc
FN:1773,_ZNSt6vectorIPN2ht11hashed_pairI3valNSt7__cxx1112basic_stringIcSt11char_traitsIcESaIcEEEEESaISA_EE11_S_max_sizeERKSB_
FNDA:10,_ZNSt6vectorIPN2ht11hashed_pairI3valNSt7__cxx1112basic_stringIcSt11char_traitsIcESaIcEEEEESaISA_EE11_S_max_sizeERKSB_
FN:1773,_ZNSt6vectorIPN2ht11hashed_pairI3valS2_EESaIS4_EE11_S_max_sizeERKS5_
FNDA:22,_ZNSt6vectorIPN2ht11hashed_pairI3valS2_EESaIS4_EE11_S_max_sizeERKS5_
DA:94,1
DA:95,1
DA:96,1
DA:94,1
DA:95,1
DA:96,1
DA:128,1
DA:130,1
DA:131,1
DA:128,1
DA:130,1
DA:131,1
DA:273,23
DA:274,23
DA:273,11
DA:274,11
DA:277,22
DA:278,22
DA:277,10
DA:278,10
DA:285,1
DA:285,1
DA:330,1
DA:332,1
DA:333,1
DA:334,1
DA:330,1
DA:332,1
DA:333,1
DA:334,1
DA:340,11
DA:343,11
DA:340,5
DA:343,5
DA:347,12
DA:350,12
DA:351,11
DA:352,12
DA:347,6
DA:350,6
DA:351,5
DA:352,6
DA:428,22
DA:433,22
DA:428,10
DA:433,10
DA:441,22
DA:446,22
DA:441,10
DA:446,10
DA:450,22
DA:453,22
DA:450,10
DA:453,10
DA:462,22
DA:466,22
DA:462,10
DA:466,10
DA:484,1
DA:484,1
DA:675,1
DA:677,1
DA:678,1
DA:680,1
DA:675,1
DA:677,1
DA:678,1
DA:680,1
DA:808,18
DA:809,18
DA:808,6
DA:809,6
DA:826,18
DA:827,18
DA:826,6
DA:827,6
DA:915,44
DA:916,44
DA:915,20
DA:916,20
DA:920,22
DA:921,22
DA:920,10
DA:921,10
DA:1184,1000
DA:1186,1000
DA:1189,989
DA:1191,989
DA:1195,11
DA:1196,1000
DA:1184,10
DA:1186,10
DA:1189,5
DA:1191,5
DA:1195,5
DA:1196,10
DA:1753,11
DA:1755,11
DA:1756,0
DA:1758,11
DA:1759,11
DA:1753,5
DA:1755,5
DA:1756,0
DA:1758,5
DA:1759,5
DA:1773,22
DA:1778,22
DA:1780,22
DA:1781,22
DA:1773,10
DA:1778,10
DA:1780,10
DA:1781,10
end_of_record
SF:/usr/include/c++/9/bits/basic_string.tcc
FN:206,_ZNSt7__cxx1112basic_stringIcSt11char_traitsIcESaIcEE12_M_constructIPcEEvT_S7_St20forward_iterator_tag
FNDA:0,_ZNSt7__cxx1112basic_stringIcSt11char_traitsIcESaIcEE12_M_constructIPcEEvT_S7_St20forward_iterator_tag
FN:206,_ZNSt7__cxx1112basic_stringIcSt11char_traitsIcESaIcEE12_M_constructIPKcEEvT_S8_St20forward_iterator_tag
FNDA:0,_ZNSt7__cxx1112basic_stringIcSt11char_traitsIcESaIcEE12_M_constructIPKcEEvT_S8_St20forward_iterator_tag
DA:206,0
DA:211,0
DA:212,0
DA:215,0
DA:217,0
DA:219,0
DA:220,0
DA:225,0
DA:226,0
DA:228,0
DA:229,0
DA:232,0
DA:233,0
DA:206,0
DA:211,0
DA:212,0
DA:215,0
DA:217,0
DA:219,0
DA:220,0
DA:225,0
DA:226,0
DA:228,0
DA:229,0
DA:232,0
DA:233,0
end_of_record
SF:/usr/include/c++/9/new
FN:173,_ZnwmPv
FNDA:1010,_ZnwmPv
DA:173,1010
DA:174,1010
end_of_record
SF:/usr/include/c++/9/bits/move.h
FN:74,_ZSt7forwardIRKPN2ht11hashed_pairI3valS2_EEEOT_RNSt16remove_referenceIS7_E4typeE
FNDA:2011,_ZSt7forwardIRKPN2ht11hashed_pairI3valS2_EEEOT_RNSt16remove_referenceIS7_E4typeE
FN:74,_ZSt7forwardIRKPN2ht11hashed_pairI3valNSt7__cxx1112basic_stringIcSt11char_traitsIcESaIcEEEEEEOT_RNSt16remove_referenceISD_E4typeE
FNDA:25,_ZSt7forwardIRKPN2ht11hashed_pairI3valNSt7__cxx1112basic_stringIcSt11char_traitsIcESaIcEEEEEEOT_RNSt16remove_referenceISD_E4typeE
FN:99,_ZSt4moveIRSaIcEEONSt16remove_referenceIT_E4typeEOS3_
FNDA:0,_ZSt4moveIRSaIcEEONSt16remove_referenceIT_E4typeEOS3_
DA:74,2011
DA:75,2011
DA:74,25
DA:75,25
DA:99,0
DA:100,0
end_of_record
SF:/usr/include/c++/9/bits/alloc_traits.h
FN:443,_ZNSt16allocator_traitsISaIPN2ht11hashed_pairI3valS2_EEEE8allocateERS5_m
FNDA:11,_ZNSt16allocator_traitsISaIPN2ht11hashed_pairI3valS2_EEEE8allocateERS5_m
FN:443,_ZNSt16allocator_traitsISaIPN2ht11hashed_pairI3valNSt7__cxx1112basic_stringIcSt11char_traitsIcESaIcEEEEEEE8allocateERSB_m
FNDA:5,_ZNSt16allocator_traitsISaIPN2ht11hashed_pairI3valNSt7__cxx1112basic_stringIcSt11char_traitsIcESaIcEEEEEEE8allocateERSB_m
FN:469,_ZNSt16allocator_traitsISaIPN2ht11hashed_pairI3valS2_EEEE10deallocateERS5_PS4_m
FNDA:11,_ZNSt16allocator_traitsISaIPN2ht11hashed_pairI3valS2_EEEE10deallocateERS5_PS4_m
FN:469,_ZNSt16allocator_traitsISaIPN2ht11hashed_pairI3valNSt7__cxx1112basic_stringIcSt11char_traitsIcESaIcEEEEEEE10deallocateERSB_PSA_m
FNDA:5,_ZNSt16allocator_traitsISaIPN2ht11hashed_pairI3valNSt7__cxx1112basic_stringIcSt11char_traitsIcESaIcEEEEEEE10deallocateERSB_PSA_m
FN:482,_ZNSt16allocator_traitsISaIPN2ht11hashed_pairI3valS2_EEEE9constructIS4_JRKS4_EEEvRS5_PT_DpOT0_
FNDA:1000,_ZNSt16allocator_traitsISaIPN2ht11hashed_pairI3valS2_EEEE9constructIS4_JRKS4_EEEvRS5_PT_DpOT0_
FN:482,_ZNSt16allocator_traitsISaIPN2ht11hashed_pairI3valNSt7__cxx1112basic_stringIcSt11char_traitsIcESaIcEEEEEEE9constructISA_JRKSA_EEEvRSB_PT_DpOT0_
FNDA:10,_ZNSt16allocator_traitsISaIPN2ht11hashed_pairI3valNSt7__cxx1112basic_stringIcSt11char_traitsIcESaIcEEEEEEE9constructISA_JRKSA_EEEvRSB_PT_DpOT0_
FN:495,_ZNSt16allocator_traitsISaIPN2ht11hashed_pairI3valS2_EEEE7destroyIS4_EEvRS5_PT_
FNDA:0,_ZNSt16allocator_traitsISaIPN2ht11hashed_pairI3valS2_EEEE7destroyIS4_EEvRS5_PT_
FN:495,_ZNSt16allocator_traitsISaIPN2ht11hashed_pairI3valNSt7__cxx1112basic_stringIcSt11char_traitsIcESaIcEEEEEEE7destroyISA_EEvRSB_PT_
FNDA:0,_ZNSt16allocator_traitsISaIPN2ht11hashed_pairI3valNSt7__cxx1112basic_stringIcSt11char_traitsIcESaIcEEEEEEE7destroyISA_EEvRSB_PT_
FN:505,_ZNSt16allocator_traitsISaIPN2ht11hashed_pairI3valS2_EEEE8max_sizeERKS5_
FNDA:22,_ZNSt16allocator_traitsISaIPN2ht11hashed_pairI3valS2_EEEE8max_sizeERKS5_
FN:505,_ZNSt16allocator_traitsISaIPN2ht11hashed_pairI3valNSt7__cxx1112basic_stringIcSt11char_traitsIcESaIcEEEEEEE8max_sizeERKSB_
FNDA:10,_ZNSt16allocator_traitsISaIPN2ht11hashed_pairI3valNSt7__cxx1112basic_stringIcSt11char_traitsIcESaIcEEEEEEE8max_sizeERKSB_
FN:514,_ZNSt16allocator_traitsISaIcEE37select_on_container_copy_constructionERKS0_
FNDA:0,_ZNSt16allocator_traitsISaIcEE37select_on_container_copy_constructionERKS0_
DA:443,11
DA:444,11
DA:443,5
DA:444,5
DA:469,11
DA:470,11
DA:469,5
DA:470,5
DA:482,1000
DA:484,1000
DA:482,10
DA:484,10
DA:495,0
DA:497,0
DA:495,0
DA:497,0
DA:505,22
DA:506,22
DA:505,10
DA:506,10
DA:514,0
DA:515,0
end_of_record
SF:/home/gab/Desktop/repos/cpp_projects/cresser/src/parser/hashtable.h
FN:36,_ZN2ht20hash_table_exceptionC2ENSt7__cxx1112basic_stringIcSt11char_traitsIcESaIcEEE
FNDA:0,_ZN2ht20hash_table_exceptionC2ENSt7__cxx1112basic_stringIcSt11char_traitsIcESaIcEEE
FN:40,_ZNK2ht20hash_table_exception4whatEv
FNDA:0,_ZNK2ht20hash_table_exception4whatEv
FN:48,_ZN2ht8opt_pairI3valNSt7__cxx1112basic_stringIcSt11char_traitsIcESaIcEEEEC2Ev
FNDA:40,_ZN2ht8opt_pairI3valNSt7__cxx1112basic_stringIcSt11char_traitsIcESaIcEEEEC2Ev
FN:48,_ZN2ht8opt_pairI3valS1_EC2Ev
FNDA:3550,_ZN2ht8opt_pairI3valS1_EC2Ev
FN:49,_ZN2ht8opt_pairI3valNSt7__cxx1112basic_stringIcSt11char_traitsIcESaIcEEEE5firstEv
FNDA:0,_ZN2ht8opt_pairI3valNSt7__cxx1112basic_stringIcSt11char_traitsIcESaIcEEEE5firstEv
FN:49,_ZN2ht8opt_pairI3valS1_E5firstEv
FNDA:0,_ZN2ht8opt_pairI3valS1_E5firstEv
FN:52,_ZN2ht8opt_pairI3valS1_E6secondEv
FNDA:0,_ZN2ht8opt_pairI3valS1_E6secondEv
FN:52,_ZN2ht8opt_pairI3valNSt7__cxx1112basic_stringIcSt11char_traitsIcESaIcEEEE6secondEv
FNDA:0,_ZN2ht8opt_pairI3valNSt7__cxx1112basic_stringIcSt11char_traitsIcESaIcEEEE6secondEv
FN:55,_ZN2ht8opt_pairI3valS1_E7isEmptyEv
FNDA:2270,_ZN2ht8opt_pairI3valS1_E7isEmptyEv
FN:55,_ZN2ht8opt_pairI3valNSt7__cxx1112basic_stringIcSt11char_traitsIcESaIcEEEE7isEmptyEv
FNDA:20,_ZN2ht8opt_pairI3valNSt7__cxx1112basic_stringIcSt11char_traitsIcESaIcEEEE7isEmptyEv
FN:62,_ZN2ht11hashed_pairI3valS1_EC2ES1_S1_
FNDA:1000,_ZN2ht11hashed_pairI3valS1_EC2ES1_S1_
FN:62,_ZN2ht11hashed_pairI3valNSt7__cxx1112basic_stringIcSt11char_traitsIcESaIcEEEEC2ES1_S7_
FNDA:10,_ZN2ht11hashed_pairI3valNSt7__cxx1112basic_stringIcSt11char_traitsIcESaIcEEEEC2ES1_S7_
FN:67,_ZN2ht11hashed_pairI3valS1_E7isEmptyEv
FNDA:267036,_ZN2ht11hashed_pairI3valS1_E7isEmptyEv
FN:67,_ZN2ht11hashed_pairI3valNSt7__cxx1112basic_stringIcSt11char_traitsIcESaIcEEEE7isEmptyEv
FNDA:24,_ZN2ht11hashed_pairI3valNSt7__cxx1112basic_stringIcSt11char_traitsIcESaIcEEEE7isEmptyEv
FN:69,_ZN2ht11hashed_pairI3valS1_E5firstEv
FNDA:265769,_ZN2ht11hashed_pairI3valS1_E5firstEv
FN:69,_ZN2ht11hashed_pairI3valNSt7__cxx1112basic_stringIcSt11char_traitsIcESaIcEEEE5firstEv
FNDA:17,_ZN2ht11hashed_pairI3valNSt7__cxx1112basic_stringIcSt11char_traitsIcESaIcEEEE5firstEv
FN:72,_ZN2ht11hashed_pairI3valNSt7__cxx1112basic_stringIcSt11char_traitsIcESaIcEEEE6secondEv
FNDA:10,_ZN2ht11hashed_pairI3valNSt7__cxx1112basic_stringIcSt11char_traitsIcESaIcEEEE6secondEv
FN:72,_ZN2ht11hashed_pairI3valS1_E6secondEv
FNDA:1000,_ZN2ht11hashed_pairI3valS1_E6secondEv
FN:98,_ZN2ht9hashtableI3valS1_ED0Ev
FNDA:0,_ZN2ht9hashtableI3valS1_ED0Ev
FN:98,_ZN2ht9hashtableI3valS1_ED2Ev
FNDA:1,_ZN2ht9hashtableI3valS1_ED2Ev
FN:98,_ZN2ht9hashtableI3valNSt7__cxx1112basic_stringIcSt11char_traitsIcESaIcEEEED0Ev
FNDA:0,_ZN2ht9hashtableI3valNSt7__cxx1112basic_stringIcSt11char_traitsIcESaIcEEEED0Ev
FN:98,_ZN2ht9hashtableI3valNSt7__cxx1112basic_stringIcSt11char_traitsIcESaIcEEEED2Ev
FNDA:1,_ZN2ht9hashtableI3valNSt7__cxx1112basic_stringIcSt11char_traitsIcESaIcEEEED2Ev
FN:113,_ZN2ht9hashtableI3valS1_EC2Ev
FNDA:1,_ZN2ht9hashtableI3valS1_EC2Ev
FN:113,_ZN2ht9hashtableI3valNSt7__cxx1112basic_stringIcSt11char_traitsIcESaIcEEEEC2Ev
FNDA:1,_ZN2ht9hashtableI3valNSt7__cxx1112basic_stringIcSt11char_traitsIcESaIcEEEEC2Ev
FN:128,_ZN2ht9hashtableI3valS1_E3addES1_S1_
FNDA:1000,_ZN2ht9hashtableI3valS1_E3addES1_S1_
FN:128,_ZN2ht9hashtableI3valNSt7__cxx1112basic_stringIcSt11char_traitsIcESaIcEEEE3addES1_S7_
FNDA:10,_ZN2ht9hashtableI3valNSt7__cxx1112basic_stringIcSt11char_traitsIcESaIcEEEE3addES1_S7_
FN:187,_ZN2ht9hashtableI3valS1_E6searchES1_
FNDA:1000,_ZN2ht9hashtableI3valS1_E6searchES1_
FN:187,_ZN2ht9hashtableI3valNSt7__cxx1112basic_stringIcSt11char_traitsIcESaIcEEEE6searchES1_
FNDA:10,_ZN2ht9hashtableI3valNSt7__cxx1112basic_stringIcSt11char_traitsIcESaIcEEEE6searchES1_
DA:36,0
DA:37,0
DA:38,0
DA:40,0
DA:41,0
DA:48,3550
DA:48,40
DA:49,0
DA:50,0
DA:49,0
DA:50,0
DA:52,0
DA:53,0
DA:52,0
DA:53,0
DA:55,2270
DA:55,20
DA:62,1000
DA:63,1000
DA:64,1000
DA:65,1000
DA:62,10
DA:63,10
DA:64,10
DA:65,10
DA:67,24
DA:67,267036
DA:69,17
DA:70,17
DA:69,265769
DA:70,265769
DA:72,10
DA:73,10
DA:72,1000
DA:73,1000
DA:98,0
DA:98,1
DA:98,0
DA:98,1
DA:113,1
DA:114,1
DA:115,1
DA:116,1
DA:117,11
DA:118,10
DA:120,1
DA:113,1
DA:114,1
DA:115,1
DA:116,1
DA:117,11
DA:118,10
DA:120,1
DA:128,1000
DA:129,1000
DA:130,1000
DA:131,1000
DA:135,1277
DA:136,1270
DA:137,3
DA:140,7
DA:141,7
DA:143,7
DA:144,7
DA:145,2547
DA:146,2540
DA:148,1856
DA:149,1849
DA:150,0
DA:152,1849
DA:154,1849
DA:155,1849
DA:156,1849
DA:158,1849
DA:159,1849
DA:161,0
DA:163,0
DA:168,1000
DA:170,1000
DA:171,263920
DA:172,263338
DA:173,263338
DA:175,418
DA:176,418
DA:178,262920
DA:180,0
DA:128,10
DA:129,10
DA:130,10
DA:131,10
DA:135,11
DA:136,10
DA:137,3
DA:140,1
DA:141,1
DA:143,1
DA:144,1
DA:145,21
DA:146,20
DA:148,8
DA:149,7
DA:150,0
DA:152,7
DA:154,7
DA:155,7
DA:156,7
DA:158,7
DA:159,7
DA:161,0
DA:163,0
DA:168,10
DA:170,10
DA:171,10
DA:172,10
DA:173,10
DA:175,10
DA:176,10
DA:178,0
DA:180,0
DA:187,1000
DA:188,1000
DA:189,1000
DA:190,1000
DA:191,0
DA:193,1000
DA:194,1000
DA:197,0
DA:187,10
DA:188,10
DA:189,10
DA:190,10
DA:191,0
DA:193,10
DA:194,10
DA:197,0
end_of_record
SF:/usr/include/c++/9/ext/new_allocator.h
FN:80,_ZN9__gnu_cxx13new_allocatorIcEC2Ev
FNDA:0,_ZN9__gnu_cxx13new_allocatorIcEC2Ev
FN:80,_ZN9__gnu_cxx13new_allocatorIPN2ht11hashed_pairI3valS3_EEEC2Ev
FNDA:1,_ZN9__gnu_cxx13new_allocatorIPN2ht11hashed_pairI3valS3_EEEC2Ev
FN:80,_ZN9__gnu_cxx13new_allocatorIPN2ht11hashed_pairI3valNSt7__cxx1112basic_stringIcSt11char_traitsIcESaIcEEEEEEC2Ev
FNDA:1,_ZN9__gnu_cxx13new_allocatorIPN2ht11hashed_pairI3valNSt7__cxx1112basic_stringIcSt11char_traitsIcESaIcEEEEEEC2Ev
FN:83,_ZN9__gnu_cxx13new_allocatorIcEC2ERKS1_
FNDA:0,_ZN9__gnu_cxx13new_allocatorIcEC2ERKS1_
FN:89,_ZN9__gnu_cxx13new_allocatorIcED2Ev
FNDA:0,_ZN9__gnu_cxx13new_allocatorIcED2Ev
FN:89,_ZN9__gnu_cxx13new_allocatorIPN2ht11hashed_pairI3valNSt7__cxx1112basic_stringIcSt11char_traitsIcESaIcEEEEEED2Ev
FNDA:1,_ZN9__gnu_cxx13new_allocatorIPN2ht11hashed_pairI3valNSt7__cxx1112basic_stringIcSt11char_traitsIcESaIcEEEEEED2Ev
FN:89,_ZN9__gnu_cxx13new_allocatorIPN2ht11hashed_pairI3valS3_EEED2Ev
FNDA:1,_ZN9__gnu_cxx13new_allocatorIPN2ht11hashed_pairI3valS3_EEED2Ev
FN:102,_ZN9__gnu_cxx13new_allocatorIPN2ht11hashed_pairI3valS3_EEE8allocateEmPKv
FNDA:11,_ZN9__gnu_cxx13new_allocatorIPN2ht11hashed_pairI3valS3_EEE8allocateEmPKv
FN:102,_ZN9__gnu_cxx13new_allocatorIPN2ht11hashed_pairI3valNSt7__cxx1112basic_stringIcSt11char_traitsIcESaIcEEEEEE8allocateEmPKv
FNDA:5,_ZN9__gnu_cxx13new_allocatorIPN2ht11hashed_pairI3valNSt7__cxx1112basic_stringIcSt11char_traitsIcESaIcEEEEEE8allocateEmPKv
FN:119,_ZN9__gnu_cxx13new_allocatorIPN2ht11hashed_pairI3valS3_EEE10deallocateEPS5_m
FNDA:11,_ZN9__gnu_cxx13new_allocatorIPN2ht11hashed_pairI3valS3_EEE10deallocateEPS5_m
FN:119,_ZN9__gnu_cxx13new_allocatorIPN2ht11hashed_pairI3valNSt7__cxx1112basic_stringIcSt11char_traitsIcESaIcEEEEEE10deallocateEPSB_m
FNDA:5,_ZN9__gnu_cxx13new_allocatorIPN2ht11hashed_pairI3valNSt7__cxx1112basic_stringIcSt11char_traitsIcESaIcEEEEEE10deallocateEPSB_m
FN:132,_ZNK9__gnu_cxx13new_allocatorIPN2ht11hashed_pairI3valNSt7__cxx1112basic_stringIcSt11char_traitsIcESaIcEEEEEE8max_sizeEv
FNDA:15,_ZNK9__gnu_cxx13new_allocatorIPN2ht11hashed_pairI3valNSt7__cxx1112basic_stringIcSt11char_traitsIcESaIcEEEEEE8max_sizeEv
FN:132,_ZNK9__gnu_cxx13new_allocatorIPN2ht11hashed_pairI3valS3_EEE8max_sizeEv
FNDA:33,_ZNK9__gnu_cxx13new_allocatorIPN2ht11hashed_pairI3valS3_EEE8max_sizeEv
FN:144,_ZN9__gnu_cxx13new_allocatorIPN2ht11hashed_pairI3valNSt7__cxx1112basic_stringIcSt11char_traitsIcESaIcEEEEEE9constructISB_JRKSB_EEEvPT_DpOT0_
FNDA:10,_ZN9__gnu_cxx13new_allocatorIPN2ht11hashed_pairI3valNSt7__cxx1112basic_stringIcSt11char_traitsIcESaIcEEEEEE9constructISB_JRKSB_EEEvPT_DpOT0_
FN:144,_ZN9__gnu_cxx13new_allocatorIPN2ht11hashed_pairI3valS3_EEE9constructIS5_JRKS5_EEEvPT_DpOT0_
FNDA:1000,_ZN9__gnu_cxx13new_allocatorIPN2ht11hashed_pairI3valS3_EEE9constructIS5_JRKS5_EEEvPT_DpOT0_
FN:151,_ZN9__gnu_cxx13new_allocatorIPN2ht11hashed_pairI3valNSt7__cxx1112basic_stringIcSt11char_traitsIcESaIcEEEEEE7destroyISB_EEvPT_
FNDA:0,_ZN9__gnu_cxx13new_allocatorIPN2ht11hashed_pairI3valNSt7__cxx1112basic_stringIcSt11char_traitsIcESaIcEEEEEE7destroyISB_EEvPT_
FN:151,_ZN9__gnu_cxx13new_allocatorIPN2ht11hashed_pairI3valS3_EEE7destroyIS5_EEvPT_
FNDA:0,_ZN9__gnu_cxx13new_allocatorIPN2ht11hashed_pairI3valS3_EEE7destroyIS5_EEvPT_
DA:80,1
DA:80,1
DA:80,0
DA:83,0
DA:89,1
DA:89,1
DA:89,0
DA:102,11
DA:104,11
DA:105,0
DA:114,11
DA:102,5
DA:104,5
DA:105,0
DA:114,5
DA:119,11
DA:128,11
DA:129,11
DA:119,5
DA:128,5
DA:129,5
DA:132,33
DA:135,33
DA:132,15
DA:135,15
DA:144,1000
DA:147,1000
DA:144,10
DA:147,10
DA:151,0
DA:153,0
DA:151,0
DA:153,0
end_of_record
SF:/usr/include/c++/9/bits/stl_iterator_base_funcs.h
FN:98,_ZSt10__distanceIPcENSt15iterator_traitsIT_E15difference_typeES2_S2_St26random_access_iterator_tag
FNDA:0,_ZSt10__distanceIPcENSt15iterator_traitsIT_E15difference_typeES2_S2_St26random_access_iterator_tag
FN:98,_ZSt10__distanceIPKcENSt15iterator_traitsIT_E15difference_typeES3_S3_St26random_access_iterator_tag
FNDA:0,_ZSt10__distanceIPKcENSt15iterator_traitsIT_E15difference_typeES3_S3_St26random_access_iterator_tag
FN:138,_ZSt8distanceIPcENSt15iterator_traitsIT_E15difference_typeES2_S2_
FNDA:0,_ZSt8distanceIPcENSt15iterator_traitsIT_E15difference_typeES2_S2_
FN:138,_ZSt8distanceIPKcENSt15iterator_traitsIT_E15difference_typeES3_S3_
FNDA:0,_ZSt8distanceIPKcENSt15iterator_traitsIT_E15difference_typeES3_S3_
DA:98,0
DA:104,0
DA:98,0
DA:104,0
DA:138,0
DA:141,0
DA:142,0
DA:138,0
DA:141,0
DA:142,0
end_of_record
SF:/usr/include/c++/9/ext/alloc_traits.h
FN:97,_ZN9__gnu_cxx14__alloc_traitsISaIcEcE17_S_select_on_copyERKS1_
FNDA:0,_ZN9__gnu_cxx14__alloc_traitsISaIcEcE17_S_select_on_copyERKS1_
DA:97,0
DA:98,0
end_of_record
SF:/home/gab/Desktop/repos/cpp_projects/cresser/tests/parser/hashtable_test.cpp
FN:12,_ZN3valC2Ev
FNDA:3010,_ZN3valC2Ev
FN:15,_ZN3valC2Ei
FNDA:1020,_ZN3valC2Ei
FN:19,_ZN3val4hashEm
FNDA:3876,_ZN3val4hashEm
FN:22,_ZeqRK3valS1_
FNDA:264930,_ZeqRK3valS1_
FN:47,main
FNDA:1,main
FN:61,_Z14test_hashtablePiPNSt7__cxx1112basic_stringIcSt11char_traitsIcESaIcEEEm
FNDA:1,_Z14test_hashtablePiPNSt7__cxx1112basic_stringIcSt11char_traitsIcESaIcEEEm
FN:75,_Z19test_hashtable_iterP3valm
FNDA:1,_Z19test_hashtable_iterP3valm
DA:12,3010
DA:13,3010
DA:14,3010
DA:15,1020
DA:16,1020
DA:17,1020
DA:19,3876
DA:20,3876
DA:22,264930
DA:23,264930
DA:47,1
DA:52,1001
DA:53,1001
DA:54,1000
DA:57,1
DA:58,1
DA:61,1
DA:62,11
DA:63,10
DA:64,10
DA:66,11
DA:67,10
DA:68,10
DA:69,0
DA:72,1
DA:75,1
DA:76,2
DA:77,1001
DA:78,1000
DA:80,1001
DA:81,1000
DA:82,0
DA:85,1
end_of_record
SF:/usr/include/c++/9/bits/basic_string.h
FN:243,_ZNSt7__cxx1112basic_stringIcSt11char_traitsIcESaIcEE16_M_construct_auxIPcEEvT_S7_St12__false_type
FNDA:0,_ZNSt7__cxx1112basic_stringIcSt11char_traitsIcESaIcEE16_M_construct_auxIPcEEvT_S7_St12__false_type
FN:243,_ZNSt7__cxx1112basic_stringIcSt11char_traitsIcESaIcEE16_M_construct_auxIPKcEEvT_S8_St12__false_type
FNDA:0,_ZNSt7__cxx1112basic_stringIcSt11char_traitsIcESaIcEE16_M_construct_auxIPKcEEvT_S8_St12__false_type
FN:263,_ZNSt7__cxx1112basic_stringIcSt11char_traitsIcESaIcEE12_M_constructIPcEEvT_S7_
FNDA:0,_ZNSt7__cxx1112basic_stringIcSt11char_traitsIcESaIcEE12_M_constructIPcEEvT_S7_
FN:263,_ZNSt7__cxx1112basic_stringIcSt11char_traitsIcESaIcEE12_M_constructIPKcEEvT_S8_
FNDA:0,_ZNSt7__cxx1112basic_stringIcSt11char_traitsIcESaIcEE12_M_constructIPKcEEvT_S8_
DA:243,0
DA:247,0
DA:248,0
DA:243,0
DA:247,0
DA:248,0
DA:263,0
DA:266,0
DA:267,0
DA:263,0
DA:266,0
DA:267,0
end_of_record
SF:/usr/include/c++/9/bits/exception.h
FN:63,_ZNSt9exceptionC2Ev
FNDA:0,_ZNSt9exceptionC2Ev
DA:63,0
end_of_record
SF:/usr/include/c++/9/bits/char_traits.h
FN:329,_ZNSt11char_traitsIcE6lengthEPKc
FNDA:0,_ZNSt11char_traitsIcE6lengthEPKc
DA:329,0
DA:335,0
end_of_record
SF:/usr/include/c++/9/bits/cpp_type_traits.h
FN:428,_ZSt12__miter_baseIPPN2ht11hashed_pairI3valS2_EEET_S6_
FNDA:0,_ZSt12__miter_baseIPPN2ht11hashed_pairI3valS2_EEET_S6_
FN:428,_ZSt12__miter_baseIPPN2ht11hashed_pairI3valNSt7__cxx1112basic_stringIcSt11char_traitsIcESaIcEEEEEET_SC_
FNDA:0,_ZSt12__miter_baseIPPN2ht11hashed_pairI3valNSt7__cxx1112basic_stringIcSt11char_traitsIcESaIcEEEEEET_SC_
DA:428,0
DA:429,0
DA:428,0
DA:429,0
end_of_record
SF:/usr/include/c++/9/bits/stl_iterator.h
FN:806,_ZN9__gnu_cxx17__normal_iteratorIPPN2ht11hashed_pairI3valNSt7__cxx1112basic_stringIcSt11char_traitsIcESaIcEEEEESt6vectorISB_SaISB_EEEC2ERKSC_
FNDA:12,_ZN9__gnu_cxx17__normal_iteratorIPPN2ht11hashed_pairI3valNSt7__cxx1112basic_stringIcSt11char_traitsIcESaIcEEEEESt6vectorISB_SaISB_EEEC2ERKSC_
FN:806,_ZN9__gnu_cxx17__normal_iteratorIPPN2ht11hashed_pairI3valS3_EESt6vectorIS5_SaIS5_EEEC2ERKS6_
FNDA:36,_ZN9__gnu_cxx17__normal_iteratorIPPN2ht11hashed_pairI3valS3_EESt6vectorIS5_SaIS5_EEEC2ERKS6_
FN:819,_ZNK9__gnu_cxx17__normal_iteratorIPPN2ht11hashed_pairI3valNSt7__cxx1112basic_stringIcSt11char_traitsIcESaIcEEEEESt6vectorISB_SaISB_EEEdeEv
FNDA:7,_ZNK9__gnu_cxx17__normal_iteratorIPPN2ht11hashed_pairI3valNSt7__cxx1112basic_stringIcSt11char_traitsIcESaIcEEEEESt6vectorISB_SaISB_EEEdeEv
FN:819,_ZNK9__gnu_cxx17__normal_iteratorIPPN2ht11hashed_pairI3valS3_EESt6vectorIS5_SaIS5_EEEdeEv
FNDA:1849,_ZNK9__gnu_cxx17__normal_iteratorIPPN2ht11hashed_pairI3valS3_EESt6vectorIS5_SaIS5_EEEdeEv
FN:827,_ZN9__gnu_cxx17__normal_iteratorIPPN2ht11hashed_pairI3valNSt7__cxx1112basic_stringIcSt11char_traitsIcESaIcEEEEESt6vectorISB_SaISB_EEEppEv
FNDA:7,_ZN9__gnu_cxx17__normal_iteratorIPPN2ht11hashed_pairI3valNSt7__cxx1112basic_stringIcSt11char_traitsIcESaIcEEEEESt6vectorISB_SaISB_EEEppEv
FN:827,_ZN9__gnu_cxx17__normal_iteratorIPPN2ht11hashed_pairI3valS3_EESt6vectorIS5_SaIS5_EEEppEv
FNDA:1849,_ZN9__gnu_cxx17__normal_iteratorIPPN2ht11hashed_pairI3valS3_EESt6vectorIS5_SaIS5_EEEppEv
FN:871,_ZNK9__gnu_cxx17__normal_iteratorIPPN2ht11hashed_pairI3valNSt7__cxx1112basic_stringIcSt11char_traitsIcESaIcEEEEESt6vectorISB_SaISB_EEE4baseEv
FNDA:36,_ZNK9__gnu_cxx17__normal_iteratorIPPN2ht11hashed_pairI3valNSt7__cxx1112basic_stringIcSt11char_traitsIcESaIcEEEEESt6vectorISB_SaISB_EEE4baseEv
FN:871,_ZNK9__gnu_cxx17__normal_iteratorIPPN2ht11hashed_pairI3valS3_EESt6vectorIS5_SaIS5_EEE4baseEv
FNDA:3756,_ZNK9__gnu_cxx17__normal_iteratorIPPN2ht11hashed_pairI3valS3_EESt6vectorIS5_SaIS5_EEE4baseEv
FN:907,_ZN9__gnu_cxxneIPPN2ht11hashed_pairI3valNSt7__cxx1112basic_stringIcSt11char_traitsIcESaIcEEEEESt6vectorISB_SaISB_EEEEbRKNS_17__normal_iteratorIT_T0_EESL_
FNDA:8,_ZN9__gnu_cxxneIPPN2ht11hashed_pairI3valNSt7__cxx1112basic_stringIcSt11char_traitsIcESaIcEEEEESt6vectorISB_SaISB_EEEEbRKNS_17__normal_iteratorIT_T0_EESL_
FN:907,_ZN9__gnu_cxxneIPPN2ht11hashed_pairI3valS3_EESt6vectorIS5_SaIS5_EEEEbRKNS_17__normal_iteratorIT_T0_EESF_
FNDA:1856,_ZN9__gnu_cxxneIPPN2ht11hashed_pairI3valS3_EESt6vectorIS5_SaIS5_EEEEbRKNS_17__normal_iteratorIT_T0_EESF_
FN:989,_ZN9__gnu_cxxmiIPPN2ht11hashed_pairI3valNSt7__cxx1112basic_stringIcSt11char_traitsIcESaIcEEEEESt6vectorISB_SaISB_EEEENS_17__normal_iteratorIT_T0_E15difference_typeERKSJ_SM_
FNDA:5,_ZN9__gnu_cxxmiIPPN2ht11hashed_pairI3valNSt7__cxx1112basic_stringIcSt11char_traitsIcESaIcEEEEESt6vectorISB_SaISB_EEEENS_17__normal_iteratorIT_T0_E15difference_typeERKSJ_SM_
FN:989,_ZN9__gnu_cxxmiIPPN2ht11hashed_pairI3valS3_EESt6vectorIS5_SaIS5_EEEENS_17__normal_iteratorIT_T0_E15difference_typeERKSD_SG_
FNDA:11,_ZN9__gnu_cxxmiIPPN2ht11hashed_pairI3valS3_EESt6vectorIS5_SaIS5_EEEENS_17__normal_iteratorIT_T0_E15difference_typeERKSD_SG_
FN:1057,_ZNSt13move_iteratorIPPN2ht11hashed_pairI3valNSt7__cxx1112basic_stringIcSt11char_traitsIcESaIcEEEEEEC2ESB_
FNDA:0,_ZNSt13move_iteratorIPPN2ht11hashed_pairI3valNSt7__cxx1112basic_stringIcSt11char_traitsIcESaIcEEEEEEC2ESB_
FN:1057,_ZNSt13move_iteratorIPPN2ht11hashed_pairI3valS2_EEEC2ES5_
FNDA:0,_ZNSt13move_iteratorIPPN2ht11hashed_pairI3valS2_EEEC2ES5_
FN:1066,_ZNKSt13move_iteratorIPPN2ht11hashed_pairI3valNSt7__cxx1112basic_stringIcSt11char_traitsIcESaIcEEEEEE4baseEv
FNDA:0,_ZNKSt13move_iteratorIPPN2ht11hashed_pairI3valNSt7__cxx1112basic_stringIcSt11char_traitsIcESaIcEEEEEE4baseEv
FN:1066,_ZNKSt13move_iteratorIPPN2ht11hashed_pairI3valS2_EEE4baseEv
FNDA:0,_ZNKSt13move_iteratorIPPN2ht11hashed_pairI3valS2_EEE4baseEv
FN:1242,_ZSt32__make_move_if_noexcept_iteratorIPN2ht11hashed_pairI3valNSt7__cxx1112basic_stringIcSt11char_traitsIcESaIcEEEEESt13move_iteratorIPSA_EET0_PT_
FNDA:0,_ZSt32__make_move_if_noexcept_iteratorIPN2ht11hashed_pairI3valNSt7__cxx1112basic_stringIcSt11char_traitsIcESaIcEEEEESt13move_iteratorIPSA_EET0_PT_
FN:1242,_ZSt32__make_move_if_noexcept_iteratorIPN2ht11hashed_pairI3valS2_EESt13move_iteratorIPS4_EET0_PT_
FNDA:0,_ZSt32__make_move_if_noexcept_iteratorIPN2ht11hashed_pairI3valS2_EESt13move_iteratorIPS4_EET0_PT_
FN:1262,_ZSt12__miter_baseIPPN2ht11hashed_pairI3valNSt7__cxx1112basic_stringIcSt11char_traitsIcESaIcEEEEEEDTcl12__miter_basecldtfp_4baseEEESt13move_iteratorIT_E
FNDA:0,_ZSt12__miter_baseIPPN2ht11hashed_pairI3valNSt7__cxx1112basic_stringIcSt11char_traitsIcESaIcEEEEEEDTcl12__miter_basecldtfp_4baseEEESt13move_iteratorIT_E
FN:1262,_ZSt12__miter_baseIPPN2ht11hashed_pairI3valS2_EEEDTcl12__miter_basecldtfp_4baseEEESt13move_iteratorIT_E
FNDA:0,_ZSt12__miter_baseIPPN2ht11hashed_pairI3valS2_EEEDTcl12__miter_basecldtfp_4baseEEESt13move_iteratorIT_E
DA:806,36
DA:807,36
DA:806,12
DA:807,12
DA:819,1849
DA:820,1849
DA:819,7
DA:820,7
DA:827,1849
DA:829,1849
DA:830,1849
DA:827,7
DA:829,7
DA:830,7
DA:871,3756
DA:872,3756
DA:871,36
DA:872,36
DA:907,1856
DA:910,1856
DA:907,8
DA:910,8
DA:989,11
DA:992,11
DA:989,5
DA:992,5
DA:1057,0
DA:1058,0
DA:1057,0
DA:1058,0
DA:1066,0
DA:1067,0
DA:1066,0
DA:1067,0
DA:1242,0
DA:1243,0
DA:1242,0
DA:1243,0
DA:1262,0
DA:1264,0
DA:1262,0
DA:1264,0
end_of_record
SF:/usr/include/c++/9/bits/allocator.h
FN:138,_ZNSaIPN2ht11hashed_pairI3valS1_EEEC2Ev
FNDA:1,_ZNSaIPN2ht11hashed_pairI3valS1_EEEC2Ev
FN:138,_ZNSaIPN2ht11hashed_pairI3valNSt7__cxx1112basic_stringIcSt11char_traitsIcESaIcEEEEEEC2Ev
FNDA:1,_ZNSaIPN2ht11hashed_pairI3valNSt7__cxx1112basic_stringIcSt11char_traitsIcESaIcEEEEEEC2Ev
FN:153,_ZNSaIPN2ht11hashed_pairI3valS1_EEED2Ev
FNDA:1,_ZNSaIPN2ht11hashed_pairI3valS1_EEED2Ev
FN:153,_ZNSaIPN2ht11hashed_pairI3valNSt7__cxx1112basic_stringIcSt11char_traitsIcESaIcEEEEEED2Ev
FNDA:1,_ZNSaIPN2ht11hashed_pairI3valNSt7__cxx1112basic_stringIcSt11char_traitsIcESaIcEEEEEED2Ev
DA:138,1
DA:138,1
DA:153,1
DA:153,1
end_of_record
SF:/usr/include/c++/9/bits/stl_iterator_base_types.h
FN:205,_ZSt19__iterator_categoryIPcENSt15iterator_traitsIT_E17iterator_categoryERKS2_
FNDA:0,_ZSt19__iterator_categoryIPcENSt15iterator_traitsIT_E17iterator_categoryERKS2_
FN:205,_ZSt19__iterator_categoryIPKcENSt15iterator_traitsIT_E17iterator_categoryERKS3_
FNDA:0,_ZSt19__iterator_categoryIPKcENSt15iterator_traitsIT_E17iterator_categoryERKS3_
DA:205,0
DA:206,0
DA:205,0
DA:206,0
end_of_record
SF:/usr/include/c++/9/bits/stl_construct.h
FN:117,_ZNSt12_Destroy_auxILb1EE9__destroyIPPN2ht11hashed_pairI3valS4_EEEEvT_S8_
FNDA:1,_ZNSt12_Destroy_auxILb1EE9__destroyIPPN2ht11hashed_pairI3valS4_EEEEvT_S8_
FN:117,_ZNSt12_Destroy_auxILb1EE9__destroyIPPN2ht11hashed_pairI3valNSt7__cxx1112basic_stringIcSt11char_traitsIcESaIcEEEEEEEvT_SE_
FNDA:1,_ZNSt12_Destroy_auxILb1EE9__destroyIPPN2ht11hashed_pairI3valNSt7__cxx1112basic_stringIcSt11char_traitsIcESaIcEEEEEEEvT_SE_
FN:127,_ZSt8_DestroyIPPN2ht11hashed_pairI3valS2_EEEvT_S6_
FNDA:1,_ZSt8_DestroyIPPN2ht11hashed_pairI3valS2_EEEvT_S6_
FN:127,_ZSt8_DestroyIPPN2ht11hashed_pairI3valNSt7__cxx1112basic_stringIcSt11char_traitsIcESaIcEEEEEEvT_SC_
FNDA:1,_ZSt8_DestroyIPPN2ht11hashed_pairI3valNSt7__cxx1112basic_stringIcSt11char_traitsIcESaIcEEEEEEvT_SC_
FN:203,_ZSt8_DestroyIPPN2ht11hashed_pairI3valS2_EES4_EvT_S6_RSaIT0_E
FNDA:1,_ZSt8_DestroyIPPN2ht11hashed_pairI3valS2_EES4_EvT_S6_RSaIT0_E
FN:203,_ZSt8_DestroyIPPN2ht11hashed_pairI3valNSt7__cxx1112basic_stringIcSt11char_traitsIcESaIcEEEEESA_EvT_SC_RSaIT0_E
FNDA:1,_ZSt8_DestroyIPPN2ht11hashed_pairI3valNSt7__cxx1112basic_stringIcSt11char_traitsIcESaIcEEEEESA_EvT_SC_RSaIT0_E
DA:117,1
DA:117,1
DA:127,1
DA:137,1
DA:138,1
DA:127,1
DA:137,1
DA:138,1
DA:203,1
DA:206,1
DA:207,1
DA:203,1
DA:206,1
DA:207,1
end_of_record
SF:/usr/include/c++/9/bits/vector.tcc
FN:426,_ZNSt6vectorIPN2ht11hashed_pairI3valS2_EESaIS4_EE17_M_realloc_insertIJRKS4_EEEvN9__gnu_cxx17__normal_iteratorIPS4_S6_EEDpOT_
FNDA:11,_ZNSt6vectorIPN2ht11hashed_pairI3valS2_EESaIS4_EE17_M_realloc_insertIJRKS4_EEEvN9__gnu_cxx17__normal_iteratorIPS4_S6_EEDpOT_
FN:426,_ZNSt6vectorIPN2ht11hashed_pairI3valNSt7__cxx1112basic_stringIcSt11char_traitsIcESaIcEEEEESaISA_EE17_M_realloc_insertIJRKSA_EEEvN9__gnu_cxx17__normal_iteratorIPSA_SC_EEDpOT_
FNDA:5,_ZNSt6vectorIPN2ht11hashed_pairI3valNSt7__cxx1112basic_stringIcSt11char_traitsIcESaIcEEEEESaISA_EE17_M_realloc_insertIJRKSA_EEEvN9__gnu_cxx17__normal_iteratorIPSA_SC_EEDpOT_
DA:426,11
DA:435,11
DA:437,11
DA:438,11
DA:439,11
DA:440,11
DA:441,11
DA:449,11
DA:450,11
DA:456,11
DA:459,11
DA:461,11
DA:462,11
DA:464,11
DA:466,11
DA:467,11
DA:474,0
DA:475,0
DA:477,0
DA:481,0
DA:482,0
DA:485,0
DA:487,0
DA:488,0
DA:489,0
DA:491,0
DA:492,0
DA:493,0
DA:496,11
DA:498,0
DA:500,11
DA:501,11
DA:502,11
DA:503,11
DA:504,11
DA:505,11
DA:426,5
DA:435,5
DA:437,5
DA:438,5
DA:439,5
DA:440,5
DA:441,5
DA:449,5
DA:450,5
DA:456,5
DA:459,5
DA:461,5
DA:462,5
DA:464,5
DA:466,5
DA:467,5
DA:474,0
DA:475,0
DA:477,0
DA:481,0
DA:482,0
DA:485,0
DA:487,0
DA:488,0
DA:489,0
DA:491,0
DA:492,0
DA:493,0
DA:496,5
DA:498,0
DA:500,5
DA:501,5
DA:502,5
DA:503,5
DA:504,5
DA:505,5
end_of_record
SF:/usr/include/c++/9/bits/stl_algobase.h
FN:198,_ZSt3minImERKT_S2_S2_
FNDA:32,_ZSt3minImERKT_S2_S2_
FN:222,_ZSt3maxImERKT_S2_S2_
FNDA:16,_ZSt3maxImERKT_S2_S2_
FN:280,_ZSt12__niter_baseIPPN2ht11hashed_pairI3valS2_EEET_S6_
FNDA:66,_ZSt12__niter_baseIPPN2ht11hashed_pairI3valS2_EEET_S6_
FN:280,_ZSt12__niter_baseIPPN2ht11hashed_pairI3valNSt7__cxx1112basic_stringIcSt11char_traitsIcESaIcEEEEEET_SC_
FNDA:30,_ZSt12__niter_baseIPPN2ht11hashed_pairI3valNSt7__cxx1112basic_stringIcSt11char_traitsIcESaIcEEEEEET_SC_
FN:295,_ZSt12__niter_wrapIPPN2ht11hashed_pairI3valS2_EEET_RKS6_S6_
FNDA:0,_ZSt12__niter_wrapIPPN2ht11hashed_pairI3valS2_EEET_RKS6_S6_
FN:295,_ZSt12__niter_wrapIPPN2ht11hashed_pairI3valNSt7__cxx1112basic_stringIcSt11char_traitsIcESaIcEEEEEET_RKSC_SC_
FNDA:0,_ZSt12__niter_wrapIPPN2ht11hashed_pairI3valNSt7__cxx1112basic_stringIcSt11char_traitsIcESaIcEEEEEET_RKSC_SC_
FN:375,_ZNSt11__copy_moveILb1ELb1ESt26random_access_iterator_tagE8__copy_mIPN2ht11hashed_pairI3valS5_EEEEPT_PKS8_SB_S9_
FNDA:0,_ZNSt11__copy_moveILb1ELb1ESt26random_access_iterator_tagE8__copy_mIPN2ht11hashed_pairI3valS5_EEEEPT_PKS8_SB_S9_
FN:375,_ZNSt11__copy_moveILb1ELb1ESt26random_access_iterator_tagE8__copy_mIPN2ht11hashed_pairI3valNSt7__cxx1112basic_stringIcSt11char_traitsIcESaIcEEEEEEEPT_PKSE_SH_SF_
FNDA:0,_ZNSt11__copy_moveILb1ELb1ESt26random_access_iterator_tagE8__copy_mIPN2ht11hashed_pairI3valNSt7__cxx1112basic_stringIcSt11char_traitsIcESaIcEEEEEEEPT_PKSE_SH_SF_
FN:393,_ZSt13__copy_move_aILb1EPPN2ht11hashed_pairI3valS2_EES5_ET1_T0_S7_S6_
FNDA:0,_ZSt13__copy_move_aILb1EPPN2ht11hashed_pairI3valS2_EES5_ET1_T0_S7_S6_
FN:393,_ZSt13__copy_move_aILb1EPPN2ht11hashed_pairI3valNSt7__cxx1112basic_stringIcSt11char_traitsIcESaIcEEEEESB_ET1_T0_SD_SC_
FNDA:0,_ZSt13__copy_move_aILb1EPPN2ht11hashed_pairI3valNSt7__cxx1112basic_stringIcSt11char_traitsIcESaIcEEEEESB_ET1_T0_SD_SC_
FN:438,_ZSt14__copy_move_a2ILb1EPPN2ht11hashed_pairI3valS2_EES5_ET1_T0_S7_S6_
FNDA:0,_ZSt14__copy_move_a2ILb1EPPN2ht11hashed_pairI3valS2_EES5_ET1_T0_S7_S6_
FN:438,_ZSt14__copy_move_a2ILb1EPPN2ht11hashed_pairI3valNSt7__cxx1112basic_stringIcSt11char_traitsIcESaIcEEEEESB_ET1_T0_SD_SC_
FNDA:0,_ZSt14__copy_move_a2ILb1EPPN2ht11hashed_pairI3valNSt7__cxx1112basic_stringIcSt11char_traitsIcESaIcEEEEESB_ET1_T0_SD_SC_
FN:465,_ZSt4copyISt13move_iteratorIPPN2ht11hashed_pairI3valS3_EEES6_ET0_T_S9_S8_
FNDA:0,_ZSt4copyISt13move_iteratorIPPN2ht11hashed_pairI3valS3_EEES6_ET0_T_S9_S8_
FN:465,_ZSt4copyISt13move_iteratorIPPN2ht11hashed_pairI3valNSt7__cxx1112basic_stringIcSt11char_traitsIcESaIcEEEEEESC_ET0_T_SF_SE_
FNDA:0,_ZSt4copyISt13move_iteratorIPPN2ht11hashed_pairI3valNSt7__cxx1112basic_stringIcSt11char_traitsIcESaIcEEEEEESC_ET0_T_SF_SE_
DA:198,32
DA:203,32
DA:204,0
DA:205,32
DA:222,16
DA:227,16
DA:228,2
DA:229,14
DA:280,66
DA:282,66
DA:280,30
DA:282,30
DA:295,0
DA:296,0
DA:295,0
DA:296,0
DA:375,0
DA:384,0
DA:385,0
DA:386,0
DA:387,0
DA:375,0
DA:384,0
DA:385,0
DA:386,0
DA:387,0
DA:393,0
DA:398,0
DA:404,0
DA:393,0
DA:398,0
DA:404,0
DA:438,0
DA:440,0
DA:443,0
DA:438,0
DA:440,0
DA:443,0
DA:465,0
DA:474,0
DA:465,0
DA:474,0
end_of_record
SF:/usr/include/c++/9/bits/stl_uninitialized.h
FN:99,_ZNSt20__uninitialized_copyILb1EE13__uninit_copyISt13move_iteratorIPPN2ht11hashed_pairI3valS5_EEES8_EET0_T_SB_SA_
FNDA:0,_ZNSt20__uninitialized_copyILb1EE13__uninit_copyISt13move_iteratorIPPN2ht11hashed_pairI3valS5_EEES8_EET0_T_SB_SA_
FN:99,_ZNSt20__uninitialized_copyILb1EE13__uninit_copyISt13move_iteratorIPPN2ht11hashed_pairI3valNSt7__cxx1112basic_stringIcSt11char_traitsIcESaIcEEEEEESE_EET0_T_SH_SG_
FNDA:0,_ZNSt20__uninitialized_copyILb1EE13__uninit_copyISt13move_iteratorIPPN2ht11hashed_pairI3valNSt7__cxx1112basic_stringIcSt11char_traitsIcESaIcEEEEEESE_EET0_T_SH_SG_
FN:115,_ZSt18uninitialized_copyISt13move_iteratorIPPN2ht11hashed_pairI3valS3_EEES6_ET0_T_S9_S8_
FNDA:0,_ZSt18uninitialized_copyISt13move_iteratorIPPN2ht11hashed_pairI3valS3_EEES6_ET0_T_S9_S8_
FN:115,_ZSt18uninitialized_copyISt13move_iteratorIPPN2ht11hashed_pairI3valNSt7__cxx1112basic_stringIcSt11char_traitsIcESaIcEEEEEESC_ET0_T_SF_SE_
FNDA:0,_ZSt18uninitialized_copyISt13move_iteratorIPPN2ht11hashed_pairI3valNSt7__cxx1112basic_stringIcSt11char_traitsIcESaIcEEEEEESC_ET0_T_SF_SE_
FN:305,_ZSt22__uninitialized_copy_aISt13move_iteratorIPPN2ht11hashed_pairI3valS3_EEES6_S5_ET0_T_S9_S8_RSaIT1_E
FNDA:0,_ZSt22__uninitialized_copy_aISt13move_iteratorIPPN2ht11hashed_pairI3valS3_EEES6_S5_ET0_T_S9_S8_RSaIT1_E
FN:305,_ZSt22__uninitialized_copy_aISt13move_iteratorIPPN2ht11hashed_pairI3valNSt7__cxx1112basic_stringIcSt11char_traitsIcESaIcEEEEEESC_SB_ET0_T_SF_SE_RSaIT1_E
FNDA:0,_ZSt22__uninitialized_copy_aISt13move_iteratorIPPN2ht11hashed_pairI3valNSt7__cxx1112basic_stringIcSt11char_traitsIcESaIcEEEEEESC_SB_ET0_T_SF_SE_RSaIT1_E
FN:323,_ZSt34__uninitialized_move_if_noexcept_aIPPN2ht11hashed_pairI3valS2_EES5_SaIS4_EET0_T_S8_S7_RT1_
FNDA:0,_ZSt34__uninitialized_move_if_noexcept_aIPPN2ht11hashed_pairI3valS2_EES5_SaIS4_EET0_T_S8_S7_RT1_
FN:323,_ZSt34__uninitialized_move_if_noexcept_aIPPN2ht11hashed_pairI3valNSt7__cxx1112basic_stringIcSt11char_traitsIcESaIcEEEEESB_SaISA_EET0_T_SE_SD_RT1_
FNDA:0,_ZSt34__uninitialized_move_if_noexcept_aIPPN2ht11hashed_pairI3valNSt7__cxx1112basic_stringIcSt11char_traitsIcESaIcEEEEESB_SaISA_EET0_T_SE_SD_RT1_
FN:924,_ZSt14__relocate_a_1IPN2ht11hashed_pairI3valS2_EES4_ENSt9enable_ifIXsrSt24__is_bitwise_relocatableIT_vE5valueEPS7_E4typeES9_S9_S9_RSaIT0_E
FNDA:22,_ZSt14__relocate_a_1IPN2ht11hashed_pairI3valS2_EES4_ENSt9enable_ifIXsrSt24__is_bitwise_relocatableIT_vE5valueEPS7_E4typeES9_S9_S9_RSaIT0_E
FN:924,_ZSt14__relocate_a_1IPN2ht11hashed_pairI3valNSt7__cxx1112basic_stringIcSt11char_traitsIcESaIcEEEEESA_ENSt9enable_ifIXsrSt24__is_bitwise_relocatableIT_vE5valueEPSD_E4typeESF_SF_SF_RSaIT0_E
FNDA:10,_ZSt14__relocate_a_1IPN2ht11hashed_pairI3valNSt7__cxx1112basic_stringIcSt11char_traitsIcESaIcEEEEESA_ENSt9enable_ifIXsrSt24__is_bitwise_relocatableIT_vE5valueEPSD_E4typeESF_SF_SF_RSaIT0_E
FN:958,_ZSt12__relocate_aIPPN2ht11hashed_pairI3valS2_EES5_SaIS4_EET0_T_S8_S7_RT1_
FNDA:22,_ZSt12__relocate_aIPPN2ht11hashed_pairI3valS2_EES5_SaIS4_EET0_T_S8_S7_RT1_
FN:958,_ZSt12__relocate_aIPPN2ht11hashed_pairI3valNSt7__cxx1112basic_stringIcSt11char_traitsIcESaIcEEEEESB_SaISA_EET0_T_SE_SD_RT1_
FNDA:10,_ZSt12__relocate_aIPPN2ht11hashed_pairI3valNSt7__cxx1112basic_stringIcSt11char_traitsIcESaIcEEEEESB_SaISA_EET0_T_SE_SD_RT1_
DA:99,0
DA:101,0
DA:99,0
DA:101,0
DA:115,0
DA:134,0
DA:140,0
DA:115,0
DA:134,0
DA:140,0
DA:305,0
DA:307,0
DA:305,0
DA:307,0
DA:323,0
DA:329,0
DA:330,0
DA:323,0
DA:329,0
DA:330,0
DA:924,22
DA:927,22
DA:928,22
DA:929,10
DA:930,22
DA:924,10
DA:927,10
DA:928,10
DA:929,4
DA:930,10
DA:958,22
DA:964,22
DA:966,22
DA:958,10
DA:964,10
DA:966,10
end_of_record
SF:/usr/include/c++/9/iostream
end_of_record
SF:/usr/include/c++/9/ext/type_traits.h
FN:152,_ZN9__gnu_cxx17__is_null_pointerIcEEbPT_
FNDA:0,_ZN9__gnu_cxx17__is_null_pointerIcEEbPT_
FN:152,_ZN9__gnu_cxx17__is_null_pointerIKcEEbPT_
FNDA:0,_ZN9__gnu_cxx17__is_null_pointerIKcEEbPT_
DA:152,0
DA:153,0
DA:152,0
DA:153,0
end_of_record
TN:
SF:/usr/include/c++/9/bits/basic_string.tcc
FN:206,_ZNSt7__cxx1112basic_stringIcSt11char_traitsIcESaIcEE12_M_constructIPcEEvT_S7_St20forward_iterator_tag
FNDA:0,_ZNSt7__cxx1112basic_stringIcSt11char_traitsIcESaIcEE12_M_constructIPcEEvT_S7_St20forward_iterator_tag
FN:206,_ZNSt7__cxx1112basic_stringIcSt11char_traitsIcESaIcEE12_M_constructIPKcEEvT_S8_St20forward_iterator_tag
FNDA:0,_ZNSt7__cxx1112basic_stringIcSt11char_traitsIcESaIcEE12_M_constructIPKcEEvT_S8_St20forward_iterator_tag
DA:206,0
DA:211,0
DA:212,0
DA:215,0
DA:217,0
DA:219,0
DA:220,0
DA:225,0
DA:226,0
DA:228,0
DA:229,0
DA:232,0
DA:233,0
DA:206,0
DA:211,0
DA:212,0
DA:215,0
DA:217,0
DA:219,0
DA:220,0
DA:225,0
DA:226,0
DA:228,0
DA:229,0
DA:232,0
DA:233,0
end_of_record
SF:/usr/include/c++/9/bits/stl_vector.h
FN:94,_ZNSt12_Vector_baseIN6parser6prefixESaIS1_EE17_Vector_impl_dataC2Ev
FNDA:3,_ZNSt12_Vector_baseIN6parser6prefixESaIS1_EE17_Vector_impl_dataC2Ev
FN:133,_ZNSt12_Vector_baseIN6parser6prefixESaIS1_EE12_Vector_implC2ERKS2_
FNDA:2,_ZNSt12_Vector_baseIN6parser6prefixESaIS1_EE12_Vector_implC2ERKS2_
FN:273,_ZNSt12_Vector_baseIPN2ht11hashed_pairIN6parser6prefixEiEESaIS5_EE19_M_get_Tp_allocatorEv
FNDA:7,_ZNSt12_Vector_baseIPN2ht11hashed_pairIN6parser6prefixEiEESaIS5_EE19_M_get_Tp_allocatorEv
FN:273,_ZNSt12_Vector_baseIN6parser6prefixESaIS1_EE19_M_get_Tp_allocatorEv
FNDA:8,_ZNSt12_Vector_baseIN6parser6prefixESaIS1_EE19_M_get_Tp_allocatorEv
FN:277,_ZNKSt12_Vector_baseIN6parser6prefixESaIS1_EE19_M_get_Tp_allocatorEv
FNDA:1,_ZNKSt12_Vector_baseIN6parser6prefixESaIS1_EE19_M_get_Tp_allocatorEv
FN:290,_ZNSt12_Vector_baseIN6parser6prefixESaIS1_EEC2ERKS2_
FNDA:1,_ZNSt12_Vector_baseIN6parser6prefixESaIS1_EEC2ERKS2_
FN:300,_ZNSt12_Vector_baseIN6parser6prefixESaIS1_EEC2EmRKS2_
FNDA:1,_ZNSt12_Vector_baseIN6parser6prefixESaIS1_EEC2EmRKS2_
FN:330,_ZNSt12_Vector_baseIN6parser6prefixESaIS1_EED2Ev
FNDA:3,_ZNSt12_Vector_baseIN6parser6prefixESaIS1_EED2Ev
FN:330,_ZNSt12_Vector_baseIPN2ht11hashed_pairIN6parser6prefixEiEESaIS5_EED2Ev
FNDA:1,_ZNSt12_Vector_baseIPN2ht11hashed_pairIN6parser6prefixEiEESaIS5_EED2Ev
FN:340,_ZNSt12_Vector_baseIN6parser6prefixESaIS1_EE11_M_allocateEm
FNDA:3,_ZNSt12_Vector_baseIN6parser6prefixESaIS1_EE11_M_allocateEm
FN:347,_ZNSt12_Vector_baseIN6parser6prefixESaIS1_EE13_M_deallocateEPS1_m
FNDA:4,_ZNSt12_Vector_baseIN6parser6prefixESaIS1_EE13_M_deallocateEPS1_m
FN:347,_ZNSt12_Vector_baseIPN2ht11hashed_pairIN6parser6prefixEiEESaIS5_EE13_M_deallocateEPS5_m
FNDA:4,_ZNSt12_Vector_baseIPN2ht11hashed_pairIN6parser6prefixEiEESaIS5_EE13_M_deallocateEPS5_m
FN:356,_ZNSt12_Vector_baseIN6parser6prefixESaIS1_EE17_M_create_storageEm
FNDA:1,_ZNSt12_Vector_baseIN6parser6prefixESaIS1_EE17_M_create_storageEm
FN:550,_ZNSt6vectorIN6parser6prefixESaIS1_EEC2ERKS3_
FNDA:1,_ZNSt6vectorIN6parser6prefixESaIS1_EEC2ERKS3_
FN:622,_ZNSt6vectorIN6parser6prefixESaIS1_EEC2ESt16initializer_listIS1_ERKS2_
FNDA:1,_ZNSt6vectorIN6parser6prefixESaIS1_EEC2ESt16initializer_listIS1_ERKS2_
FN:675,_ZNSt6vectorIN6parser6prefixESaIS1_EED2Ev
FNDA:3,_ZNSt6vectorIN6parser6prefixESaIS1_EED2Ev
FN:675,_ZNSt6vectorIPN2ht11hashed_pairIN6parser6prefixEiEESaIS5_EED2Ev
FNDA:1,_ZNSt6vectorIPN2ht11hashed_pairIN6parser6prefixEiEESaIS5_EED2Ev
FN:808,_ZNSt6vectorIN6parser6prefixESaIS1_EE5beginEv
FNDA:5,_ZNSt6vectorIN6parser6prefixESaIS1_EE5beginEv
FN:817,_ZNKSt6vectorIN6parser6prefixESaIS1_EE5beginEv
FNDA:2,_ZNKSt6vectorIN6parser6prefixESaIS1_EE5beginEv
FN:826,_ZNSt6vectorIN6parser6prefixESaIS1_EE3endEv
FNDA:5,_ZNSt6vectorIN6parser6prefixESaIS1_EE3endEv
FN:835,_ZNKSt6vectorIN6parser6prefixESaIS1_EE3endEv
FNDA:2,_ZNKSt6vectorIN6parser6prefixESaIS1_EE3endEv
FN:915,_ZNKSt6vectorIN6parser6prefixESaIS1_EE4sizeEv
FNDA:2,_ZNKSt6vectorIN6parser6prefixESaIS1_EE4sizeEv
FN:1574,_ZNSt6vectorIN6parser6prefixESaIS1_EE19_M_range_initializeIPKS1_EEvT_S7_St20forward_iterator_tag
FNDA:1,_ZNSt6vectorIN6parser6prefixESaIS1_EE19_M_range_initializeIPKS1_EEvT_S7_St20forward_iterator_tag
FN:1764,_ZNSt6vectorIN6parser6prefixESaIS1_EE17_S_check_init_lenEmRKS2_
FNDA:1,_ZNSt6vectorIN6parser6prefixESaIS1_EE17_S_check_init_lenEmRKS2_
FN:1773,_ZNSt6vectorIN6parser6prefixESaIS1_EE11_S_max_sizeERKS2_
FNDA:1,_ZNSt6vectorIN6parser6prefixESaIS1_EE11_S_max_sizeERKS2_
DA:94,3
DA:95,3
DA:96,3
DA:133,2
DA:134,2
DA:135,2
DA:273,7
DA:274,7
DA:273,8
DA:274,8
DA:277,1
DA:278,1
DA:290,1
DA:291,1
DA:300,1
DA:301,1
DA:302,1
DA:330,1
DA:332,1
DA:333,1
DA:334,1
DA:330,3
DA:332,3
DA:333,3
DA:334,3
DA:340,3
DA:343,3
DA:347,4
DA:350,4
DA:351,3
DA:352,4
DA:347,4
DA:350,4
DA:351,3
DA:352,4
DA:356,1
DA:358,1
DA:359,1
DA:360,1
DA:361,1
DA:550,1
DA:552,1
DA:554,1
DA:555,1
DA:557,1
DA:558,1
DA:622,1
DA:624,1
DA:626,1
DA:628,1
DA:675,1
DA:677,1
DA:678,1
DA:680,1
DA:675,3
DA:677,3
DA:678,3
DA:680,3
DA:808,5
DA:809,5
DA:817,2
DA:818,2
DA:826,5
DA:827,5
DA:835,2
DA:836,2
DA:915,2
DA:916,2
DA:1574,1
DA:1577,1
DA:1578,1
DA:1579,1
DA:1580,1
DA:1581,1
DA:1582,1
DA:1584,1
DA:1585,1
DA:1764,1
DA:1766,1
DA:1767,0
DA:1769,1
DA:1773,1
DA:1778,1
DA:1780,1
DA:1781,1
end_of_record
SF:/usr/include/c++/9/new
FN:173,_ZnwmPv
FNDA:15,_ZnwmPv
FN:179,_ZdlPvS_
FNDA:0,_ZdlPvS_
DA:173,15
DA:174,15
DA:179,0
end_of_record
SF:/usr/include/c++/9/bits/alloc_traits.h
FN:443,_ZNSt16allocator_traitsISaIN6parser6prefixEEE8allocateERS2_m
FNDA:3,_ZNSt16allocator_traitsISaIN6parser6prefixEEE8allocateERS2_m
FN:469,_ZNSt16allocator_traitsISaIPN2ht11hashed_pairIN6parser6prefixEiEEEE10deallocateERS6_PS5_m
FNDA:3,_ZNSt16allocator_traitsISaIPN2ht11hashed_pairIN6parser6prefixEiEEEE10deallocateERS6_PS5_m
FN:469,_ZNSt16allocator_traitsISaIN6parser6prefixEEE10deallocateERS2_PS1_m
FNDA:3,_ZNSt16allocator_traitsISaIN6parser6prefixEEE10deallocateERS2_PS1_m
FN:505,_ZNSt16allocator_traitsISaIN6parser6prefixEEE8max_sizeERKS2_
FNDA:1,_ZNSt16allocator_traitsISaIN6parser6prefixEEE8max_sizeERKS2_
FN:514,_ZNSt16allocator_traitsISaIcEE37select_on_container_copy_constructionERKS0_
FNDA:0,_ZNSt16allocator_traitsISaIcEE37select_on_container_copy_constructionERKS0_
FN:514,_ZNSt16allocator_traitsISaIN6parser6prefixEEE37select_on_container_copy_constructionERKS2_
FNDA:1,_ZNSt16allocator_traitsISaIN6parser6prefixEEE37select_on_container_copy_constructionERKS2_
DA:443,3
DA:444,3
DA:469,3
DA:470,3
DA:469,3
DA:470,3
DA:505,1
DA:506,1
DA:514,0
DA:515,0
DA:514,1
DA:515,1
end_of_record
SF:/usr/include/c++/9/bits/move.h
FN:47,_ZSt11__addressofIN6parser6prefixEEPT_RS2_
FNDA:24,_ZSt11__addressofIN6parser6prefixEEPT_RS2_
FN:74,_ZSt7forwardIRKN6parser6prefixEEOT_RNSt16remove_referenceIS4_E4typeE
FNDA:12,_ZSt7forwardIRKN6parser6prefixEEOT_RNSt16remove_referenceIS4_E4typeE
FN:99,_ZSt4moveIRSaIcEEONSt16remove_referenceIT_E4typeEOS3_
FNDA:0,_ZSt4moveIRSaIcEEONSt16remove_referenceIT_E4typeEOS3_
DA:47,24
DA:48,24
DA:74,12
DA:75,12
DA:99,0
DA:100,0
end_of_record
SF:/home/gab/Desktop/repos/cpp_projects/cresser/src/parser/hashtable.h
FN:98,_ZN2ht9hashtableIN6parser6prefixEiED0Ev
FNDA:0,_ZN2ht9hashtableIN6parser6prefixEiED0Ev
FN:98,_ZN2ht9hashtableIN6parser6prefixEiED2Ev
FNDA:1,_ZN2ht9hashtableIN6parser6prefixEiED2Ev
DA:98,0
DA:98,1
end_of_record
SF:/usr/include/c++/9/initializer_list
FN:71,_ZNKSt16initializer_listIN6parser6prefixEE4sizeEv
FNDA:1,_ZNKSt16initializer_listIN6parser6prefixEE4sizeEv
FN:75,_ZNKSt16initializer_listIN6parser6prefixEE5beginEv
FNDA:2,_ZNKSt16initializer_listIN6parser6prefixEE5beginEv
FN:79,_ZNKSt16initializer_listIN6parser6prefixEE3endEv
FNDA:1,_ZNKSt16initializer_listIN6parser6prefixEE3endEv
DA:71,1
DA:75,2
DA:79,1
end_of_record
SF:/usr/include/c++/9/ext/new_allocator.h
FN:80,_ZN9__gnu_cxx13new_allocatorIN6parser6prefixEEC2Ev
FNDA:2,_ZN9__gnu_cxx13new_allocatorIN6parser6prefixEEC2Ev
FN:80,_ZN9__gnu_cxx13new_allocatorIcEC2Ev
FNDA:0,_ZN9__gnu_cxx13new_allocatorIcEC2Ev
FN:83,_ZN9__gnu_cxx13new_allocatorIN6parser6prefixEEC2ERKS3_
FNDA:4,_ZN9__gnu_cxx13new_allocatorIN6parser6prefixEEC2ERKS3_
FN:83,_ZN9__gnu_cxx13new_allocatorIcEC2ERKS1_
FNDA:0,_ZN9__gnu_cxx13new_allocatorIcEC2ERKS1_
FN:89,_ZN9__gnu_cxx13new_allocatorIPN2ht11hashed_pairIN6parser6prefixEiEEED2Ev
FNDA:1,_ZN9__gnu_cxx13new_allocatorIPN2ht11hashed_pairIN6parser6prefixEiEEED2Ev
FN:89,_ZN9__gnu_cxx13new_allocatorIN6parser6prefixEED2Ev
FNDA:6,_ZN9__gnu_cxx13new_allocatorIN6parser6prefixEED2Ev
FN:89,_ZN9__gnu_cxx13new_allocatorIcED2Ev
FNDA:0,_ZN9__gnu_cxx13new_allocatorIcED2Ev
FN:102,_ZN9__gnu_cxx13new_allocatorIN6parser6prefixEE8allocateEmPKv
FNDA:3,_ZN9__gnu_cxx13new_allocatorIN6parser6prefixEE8allocateEmPKv
FN:119,_ZN9__gnu_cxx13new_allocatorIPN2ht11hashed_pairIN6parser6prefixEiEEE10deallocateEPS6_m
FNDA:3,_ZN9__gnu_cxx13new_allocatorIPN2ht11hashed_pairIN6parser6prefixEiEEE10deallocateEPS6_m
FN:119,_ZN9__gnu_cxx13new_allocatorIN6parser6prefixEE10deallocateEPS2_m
FNDA:3,_ZN9__gnu_cxx13new_allocatorIN6parser6prefixEE10deallocateEPS2_m
FN:132,_ZNK9__gnu_cxx13new_allocatorIN6parser6prefixEE8max_sizeEv
FNDA:4,_ZNK9__gnu_cxx13new_allocatorIN6parser6prefixEE8max_sizeEv
DA:80,2
DA:80,0
DA:83,4
DA:83,0
DA:89,1
DA:89,6
DA:89,0
DA:102,3
DA:104,3
DA:105,0
DA:114,3
DA:119,3
DA:128,3
DA:129,3
DA:119,3
DA:128,3
DA:129,3
DA:132,4
DA:135,4
end_of_record
SF:/usr/include/c++/9/bits/stl_iterator_base_funcs.h
FN:98,_ZSt10__distanceIPcENSt15iterator_traitsIT_E15difference_typeES2_S2_St26random_access_iterator_tag
FNDA:0,_ZSt10__distanceIPcENSt15iterator_traitsIT_E15difference_typeES2_S2_St26random_access_iterator_tag
FN:98,_ZSt10__distanceIPKcENSt15iterator_traitsIT_E15difference_typeES3_S3_St26random_access_iterator_tag
FNDA:0,_ZSt10__distanceIPKcENSt15iterator_traitsIT_E15difference_typeES3_S3_St26random_access_iterator_tag
FN:98,_ZSt10__distanceIPKN6parser6prefixEENSt15iterator_traitsIT_E15difference_typeES5_S5_St26random_access_iterator_tag
FNDA:1,_ZSt10__distanceIPKN6parser6prefixEENSt15iterator_traitsIT_E15difference_typeES5_S5_St26random_access_iterator_tag
FN:138,_ZSt8distanceIPcENSt15iterator_traitsIT_E15difference_typeES2_S2_
FNDA:0,_ZSt8distanceIPcENSt15iterator_traitsIT_E15difference_typeES2_S2_
FN:138,_ZSt8distanceIPKcENSt15iterator_traitsIT_E15difference_typeES3_S3_
FNDA:0,_ZSt8distanceIPKcENSt15iterator_traitsIT_E15difference_typeES3_S3_
FN:138,_ZSt8distanceIPKN6parser6prefixEENSt15iterator_traitsIT_E15difference_typeES5_S5_
FNDA:1,_ZSt8distanceIPKN6parser6prefixEENSt15iterator_traitsIT_E15difference_typeES5_S5_
DA:98,0
DA:104,0
DA:98,0
DA:104,0
DA:98,1
DA:104,1
DA:138,0
DA:141,0
DA:142,0
DA:138,0
DA:141,0
DA:142,0
DA:138,1
DA:141,1
DA:142,2
end_of_record
SF:/usr/include/c++/9/ext/alloc_traits.h
FN:97,_ZN9__gnu_cxx14__alloc_traitsISaIcEcE17_S_select_on_copyERKS1_
FNDA:0,_ZN9__gnu_cxx14__alloc_traitsISaIcEcE17_S_select_on_copyERKS1_
FN:97,_ZN9__gnu_cxx14__alloc_traitsISaIN6parser6prefixEES2_E17_S_select_on_copyERKS3_
FNDA:1,_ZN9__gnu_cxx14__alloc_traitsISaIN6parser6prefixEES2_E17_S_select_on_copyERKS3_
DA:97,0
DA:98,0
DA:97,1
DA:98,1
end_of_record
SF:/home/gab/Desktop/repos/cpp_projects/cresser/tests/parser/argument_multimap_test.cpp
FN:11,main
FNDA:1,main
DA:11,1
DA:13,8
DA:14,1
DA:15,5
DA:18,4
DA:21,4
DA:22,1
DA:24,3
DA:27,1
end_of_record
SF:/usr/include/c++/9/bits/basic_string.h
FN:243,_ZNSt7__cxx1112basic_stringIcSt11char_traitsIcESaIcEE16_M_construct_auxIPcEEvT_S7_St12__false_type
FNDA:0,_ZNSt7__cxx1112basic_stringIcSt11char_traitsIcESaIcEE16_M_construct_auxIPcEEvT_S7_St12__false_type
FN:243,_ZNSt7__cxx1112basic_stringIcSt11char_traitsIcESaIcEE16_M_construct_auxIPKcEEvT_S8_St12__false_type
FNDA:0,_ZNSt7__cxx1112basic_stringIcSt11char_traitsIcESaIcEE16_M_construct_auxIPKcEEvT_S8_St12__false_type
FN:263,_ZNSt7__cxx1112basic_stringIcSt11char_traitsIcESaIcEE12_M_constructIPcEEvT_S7_
FNDA:0,_ZNSt7__cxx1112basic_stringIcSt11char_traitsIcESaIcEE12_M_constructIPcEEvT_S7_
FN:263,_ZNSt7__cxx1112basic_stringIcSt11char_traitsIcESaIcEE12_M_constructIPKcEEvT_S8_
FNDA:0,_ZNSt7__cxx1112basic_stringIcSt11char_traitsIcESaIcEE12_M_constructIPKcEEvT_S8_
DA:243,0
DA:247,0
DA:248,0
DA:243,0
DA:247,0
DA:248,0
DA:263,0
DA:266,0
DA:267,0
DA:263,0
DA:266,0
DA:267,0
end_of_record
SF:/home/gab/Desktop/repos/cpp_projects/cresser/src/parser/parser.h
FN:45,_ZN6parser6prefixC2ENSt7__cxx1112basic_stringIcSt11char_traitsIcESaIcEEE
FNDA:4,_ZN6parser6prefixC2ENSt7__cxx1112basic_stringIcSt11char_traitsIcESaIcEEE
DA:45,4
end_of_record
SF:/usr/include/c++/9/bits/char_traits.h
FN:329,_ZNSt11char_traitsIcE6lengthEPKc
FNDA:0,_ZNSt11char_traitsIcE6lengthEPKc
DA:329,0
DA:335,0
end_of_record
SF:/usr/include/c++/9/bits/allocator.h
FN:138,_ZNSaIN6parser6prefixEEC2Ev
FNDA:2,_ZNSaIN6parser6prefixEEC2Ev
FN:141,_ZNSaIN6parser6prefixEEC2ERKS1_
FNDA:4,_ZNSaIN6parser6prefixEEC2ERKS1_
FN:153,_ZNSaIPN2ht11hashed_pairIN6parser6prefixEiEEED2Ev
FNDA:1,_ZNSaIPN2ht11hashed_pairIN6parser6prefixEiEEED2Ev
FN:153,_ZNSaIN6parser6prefixEED2Ev
FNDA:6,_ZNSaIN6parser6prefixEED2Ev
DA:138,2
DA:141,4
DA:142,4
DA:153,1
DA:153,6
end_of_record
SF:/usr/include/c++/9/bits/stl_iterator.h
FN:806,_ZN9__gnu_cxx17__normal_iteratorIPKN6parser6prefixESt6vectorIS2_SaIS2_EEEC2ERKS4_
FNDA:4,_ZN9__gnu_cxx17__normal_iteratorIPKN6parser6prefixESt6vectorIS2_SaIS2_EEEC2ERKS4_
FN:806,_ZN9__gnu_cxx17__normal_iteratorIPN6parser6prefixESt6vectorIS2_SaIS2_EEEC2ERKS3_
FNDA:10,_ZN9__gnu_cxx17__normal_iteratorIPN6parser6prefixESt6vectorIS2_SaIS2_EEEC2ERKS3_
FN:819,_ZNK9__gnu_cxx17__normal_iteratorIPKN6parser6prefixESt6vectorIS2_SaIS2_EEEdeEv
FNDA:8,_ZNK9__gnu_cxx17__normal_iteratorIPKN6parser6prefixESt6vectorIS2_SaIS2_EEEdeEv
FN:819,_ZNK9__gnu_cxx17__normal_iteratorIPN6parser6prefixESt6vectorIS2_SaIS2_EEEdeEv
FNDA:20,_ZNK9__gnu_cxx17__normal_iteratorIPN6parser6prefixESt6vectorIS2_SaIS2_EEEdeEv
FN:827,_ZN9__gnu_cxx17__normal_iteratorIPKN6parser6prefixESt6vectorIS2_SaIS2_EEEppEv
FNDA:8,_ZN9__gnu_cxx17__normal_iteratorIPKN6parser6prefixESt6vectorIS2_SaIS2_EEEppEv
FN:827,_ZN9__gnu_cxx17__normal_iteratorIPN6parser6prefixESt6vectorIS2_SaIS2_EEEppEv
FNDA:20,_ZN9__gnu_cxx17__normal_iteratorIPN6parser6prefixESt6vectorIS2_SaIS2_EEEppEv
FN:871,_ZNK9__gnu_cxx17__normal_iteratorIPKN6parser6prefixESt6vectorIS2_SaIS2_EEE4baseEv
FNDA:20,_ZNK9__gnu_cxx17__normal_iteratorIPKN6parser6prefixESt6vectorIS2_SaIS2_EEE4baseEv
FN:871,_ZNK9__gnu_cxx17__normal_iteratorIPN6parser6prefixESt6vectorIS2_SaIS2_EEE4baseEv
FNDA:50,_ZNK9__gnu_cxx17__normal_iteratorIPN6parser6prefixESt6vectorIS2_SaIS2_EEE4baseEv
FN:907,_ZN9__gnu_cxxneIPKN6parser6prefixESt6vectorIS2_SaIS2_EEEEbRKNS_17__normal_iteratorIT_T0_EESD_
FNDA:10,_ZN9__gnu_cxxneIPKN6parser6prefixESt6vectorIS2_SaIS2_EEEEbRKNS_17__normal_iteratorIT_T0_EESD_
FN:907,_ZN9__gnu_cxxneIPN6parser6prefixESt6vectorIS2_SaIS2_EEEEbRKNS_17__normal_iteratorIT_T0_EESC_
FNDA:25,_ZN9__gnu_cxxneIPN6parser6prefixESt6vectorIS2_SaIS2_EEEEbRKNS_17__normal_iteratorIT_T0_EESC_
DA:806,4
DA:807,4
DA:806,10
DA:807,10
DA:819,8
DA:820,8
DA:819,20
DA:820,20
DA:827,8
DA:829,8
DA:830,8
DA:827,20
DA:829,20
DA:830,20
DA:871,20
DA:872,20
DA:871,50
DA:872,50
DA:907,10
DA:910,10
DA:907,25
DA:910,25
end_of_record
SF:/usr/include/c++/9/bits/stl_construct.h
FN:74,_ZSt10_ConstructIN6parser6prefixEJRKS1_EEvPT_DpOT0_
FNDA:12,_ZSt10_ConstructIN6parser6prefixEJRKS1_EEvPT_DpOT0_
FN:97,_ZSt8_DestroyIN6parser6prefixEEvPT_
FNDA:12,_ZSt8_DestroyIN6parser6prefixEEvPT_
FN:105,_ZNSt12_Destroy_auxILb0EE9__destroyIPN6parser6prefixEEEvT_S5_
FNDA:4,_ZNSt12_Destroy_auxILb0EE9__destroyIPN6parser6prefixEEEvT_S5_
FN:117,_ZNSt12_Destroy_auxILb1EE9__destroyIPPN2ht11hashed_pairIN6parser6prefixEiEEEEvT_S9_
FNDA:1,_ZNSt12_Destroy_auxILb1EE9__destroyIPPN2ht11hashed_pairIN6parser6prefixEiEEEEvT_S9_
FN:127,_ZSt8_DestroyIPPN2ht11hashed_pairIN6parser6prefixEiEEEvT_S7_
FNDA:1,_ZSt8_DestroyIPPN2ht11hashed_pairIN6parser6prefixEiEEEvT_S7_
FN:127,_ZSt8_DestroyIPN6parser6prefixEEvT_S3_
FNDA:4,_ZSt8_DestroyIPN6parser6prefixEEvT_S3_
FN:203,_ZSt8_DestroyIPPN2ht11hashed_pairIN6parser6prefixEiEES5_EvT_S7_RSaIT0_E
FNDA:1,_ZSt8_DestroyIPPN2ht11hashed_pairIN6parser6prefixEiEES5_EvT_S7_RSaIT0_E
FN:203,_ZSt8_DestroyIPN6parser6prefixES1_EvT_S3_RSaIT0_E
FNDA:4,_ZSt8_DestroyIPN6parser6prefixES1_EvT_S3_RSaIT0_E
DA:74,12
DA:75,12
DA:97,12
DA:98,12
DA:105,16
DA:107,16
DA:108,12
DA:109,4
DA:117,1
DA:127,1
DA:137,1
DA:138,1
DA:127,4
DA:137,4
DA:138,4
DA:203,1
DA:206,1
DA:207,1
DA:203,4
DA:206,4
DA:207,4
end_of_record
SF:/usr/include/c++/9/bits/stl_iterator_base_types.h
FN:205,_ZSt19__iterator_categoryIPcENSt15iterator_traitsIT_E17iterator_categoryERKS2_
FNDA:0,_ZSt19__iterator_categoryIPcENSt15iterator_traitsIT_E17iterator_categoryERKS2_
FN:205,_ZSt19__iterator_categoryIPKcENSt15iterator_traitsIT_E17iterator_categoryERKS3_
FNDA:0,_ZSt19__iterator_categoryIPKcENSt15iterator_traitsIT_E17iterator_categoryERKS3_
FN:205,_ZSt19__iterator_categoryIPKN6parser6prefixEENSt15iterator_traitsIT_E17iterator_categoryERKS5_
FNDA:1,_ZSt19__iterator_categoryIPKN6parser6prefixEENSt15iterator_traitsIT_E17iterator_categoryERKS5_
DA:205,0
DA:206,0
DA:205,0
DA:206,0
DA:205,1
DA:206,1
end_of_record
SF:/usr/include/c++/9/iostream
end_of_record
SF:/usr/include/c++/9/ext/type_traits.h
FN:152,_ZN9__gnu_cxx17__is_null_pointerIcEEbPT_
FNDA:0,_ZN9__gnu_cxx17__is_null_pointerIcEEbPT_
FN:152,_ZN9__gnu_cxx17__is_null_pointerIKcEEbPT_
FNDA:0,_ZN9__gnu_cxx17__is_null_pointerIKcEEbPT_
DA:152,0
DA:153,0
DA:152,0
DA:153,0
end_of_record
SF:/usr/include/c++/9/bits/stl_algobase.h
FN:198,_ZSt3minImERKT_S2_S2_
FNDA:7,_ZSt3minImERKT_S2_S2_
DA:198,7
DA:203,7
DA:204,0
DA:205,7
end_of_record
SF:/usr/include/c++/9/bits/stl_uninitialized.h
FN:76,_ZNSt20__uninitialized_copyILb0EE13__uninit_copyIPKN6parser6prefixEPS3_EET0_T_S8_S7_
FNDA:1,_ZNSt20__uninitialized_copyILb0EE13__uninit_copyIPKN6parser6prefixEPS3_EET0_T_S8_S7_
FN:76,_ZNSt20__uninitialized_copyILb0EE13__uninit_copyIN9__gnu_cxx17__normal_iteratorIPKN6parser6prefixESt6vectorIS5_SaIS5_EEEEPS5_EET0_T_SE_SD_
FNDA:2,_ZNSt20__uninitialized_copyILb0EE13__uninit_copyIN9__gnu_cxx17__normal_iteratorIPKN6parser6prefixESt6vectorIS5_SaIS5_EEEEPS5_EET0_T_SE_SD_
FN:115,_ZSt18uninitialized_copyIPKN6parser6prefixEPS1_ET0_T_S6_S5_
FNDA:1,_ZSt18uninitialized_copyIPKN6parser6prefixEPS1_ET0_T_S6_S5_
FN:115,_ZSt18uninitialized_copyIN9__gnu_cxx17__normal_iteratorIPKN6parser6prefixESt6vectorIS3_SaIS3_EEEEPS3_ET0_T_SC_SB_
FNDA:2,_ZSt18uninitialized_copyIN9__gnu_cxx17__normal_iteratorIPKN6parser6prefixESt6vectorIS3_SaIS3_EEEEPS3_ET0_T_SC_SB_
FN:305,_ZSt22__uninitialized_copy_aIPKN6parser6prefixEPS1_S1_ET0_T_S6_S5_RSaIT1_E
FNDA:1,_ZSt22__uninitialized_copy_aIPKN6parser6prefixEPS1_S1_ET0_T_S6_S5_RSaIT1_E
FN:305,_ZSt22__uninitialized_copy_aIN9__gnu_cxx17__normal_iteratorIPKN6parser6prefixESt6vectorIS3_SaIS3_EEEEPS3_S3_ET0_T_SC_SB_RSaIT1_E
FNDA:2,_ZSt22__uninitialized_copy_aIN9__gnu_cxx17__normal_iteratorIPKN6parser6prefixESt6vectorIS3_SaIS3_EEEEPS3_S3_ET0_T_SC_SB_RSaIT1_E
DA:76,1
DA:79,1
DA:82,5
DA:83,4
DA:84,1
DA:86,0
DA:88,0
DA:89,0
DA:76,2
DA:79,2
DA:82,10
DA:83,8
DA:84,2
DA:86,0
DA:88,0
DA:89,0
DA:115,1
DA:134,1
DA:140,1
DA:115,2
DA:134,2
DA:140,2
DA:305,1
DA:307,1
DA:305,2
DA:307,2
end_of_record
TN:
SF:/usr/include/c++/9/bits/basic_string.h
FN:243,_ZNSt7__cxx1112basic_stringIcSt11char_traitsIcESaIcEE16_M_construct_auxIPcEEvT_S7_St12__false_type
FNDA:0,_ZNSt7__cxx1112basic_stringIcSt11char_traitsIcESaIcEE16_M_construct_auxIPcEEvT_S7_St12__false_type
FN:243,_ZNSt7__cxx1112basic_stringIcSt11char_traitsIcESaIcEE16_M_construct_auxIPKcEEvT_S8_St12__false_type
FNDA:0,_ZNSt7__cxx1112basic_stringIcSt11char_traitsIcESaIcEE16_M_construct_auxIPKcEEvT_S8_St12__false_type
FN:263,_ZNSt7__cxx1112basic_stringIcSt11char_traitsIcESaIcEE12_M_constructIPcEEvT_S7_
FNDA:0,_ZNSt7__cxx1112basic_stringIcSt11char_traitsIcESaIcEE12_M_constructIPcEEvT_S7_
FN:263,_ZNSt7__cxx1112basic_stringIcSt11char_traitsIcESaIcEE12_M_constructIPKcEEvT_S8_
FNDA:0,_ZNSt7__cxx1112basic_stringIcSt11char_traitsIcESaIcEE12_M_constructIPKcEEvT_S8_
DA:243,0
DA:247,0
DA:248,0
DA:243,0
DA:247,0
DA:248,0
DA:263,0
DA:266,0
DA:267,0
DA:263,0
DA:266,0
DA:267,0
end_of_record
SF:/usr/include/c++/9/bits/char_traits.h
FN:329,_ZNSt11char_traitsIcE6lengthEPKc
FNDA:0,_ZNSt11char_traitsIcE6lengthEPKc
DA:329,0
DA:335,0
end_of_record
SF:/usr/include/c++/9/bits/stl_iterator_base_types.h
FN:205,_ZSt19__iterator_categoryIPcENSt15iterator_traitsIT_E17iterator_categoryERKS2_
FNDA:0,_ZSt19__iterator_categoryIPcENSt15iterator_traitsIT_E17iterator_categoryERKS2_
FN:205,_ZSt19__iterator_categoryIPKcENSt15iterator_traitsIT_E17iterator_categoryERKS3_
FNDA:0,_ZSt19__iterator_categoryIPKcENSt15iterator_traitsIT_E17iterator_categoryERKS3_
DA:205,0
DA:206,0
DA:205,0
DA:206,0
end_of_record
SF:/usr/include/c++/9/ext/type_traits.h
FN:152,_ZN9__gnu_cxx17__is_null_pointerIcEEbPT_
FNDA:0,_ZN9__gnu_cxx17__is_null_pointerIcEEbPT_
FN:152,_ZN9__gnu_cxx17__is_null_pointerIKcEEbPT_
FNDA:0,_ZN9__gnu_cxx17__is_null_pointerIKcEEbPT_
DA:152,0
DA:153,0
DA:152,0
DA:153,0
end_of_record
SF:/usr/include/c++/9/iostream
end_of_record
SF:/usr/include/c++/9/bits/basic_string.tcc
FN:206,_ZNSt7__cxx1112basic_stringIcSt11char_traitsIcESaIcEE12_M_constructIPcEEvT_S7_St20forward_iterator_tag
FNDA:0,_ZNSt7__cxx1112basic_stringIcSt11char_traitsIcESaIcEE12_M_constructIPcEEvT_S7_St20forward_iterator_tag
FN:206,_ZNSt7__cxx1112basic_stringIcSt11char_traitsIcESaIcEE12_M_constructIPKcEEvT_S8_St20forward_iterator_tag
FNDA:0,_ZNSt7__cxx1112basic_stringIcSt11char_traitsIcESaIcEE12_M_constructIPKcEEvT_S8_St20forward_iterator_tag
DA:206,0
DA:211,0
DA:212,0
DA:215,0
DA:217,0
DA:219,0
DA:220,0
DA:225,0
DA:226,0
DA:228,0
DA:229,0
DA:232,0
DA:233,0
DA:206,0
DA:211,0
DA:212,0
DA:215,0
DA:217,0
DA:219,0
DA:220,0
DA:225,0
DA:226,0
DA:228,0
DA:229,0
DA:232,0
DA:233,0
end_of_record
SF:/usr/include/c++/9/bits/move.h
FN:99,_ZSt4moveIRSaIcEEONSt16remove_referenceIT_E4typeEOS3_
FNDA:0,_ZSt4moveIRSaIcEEONSt16remove_referenceIT_E4typeEOS3_
DA:99,0
DA:100,0
end_of_record
SF:/usr/include/c++/9/bits/alloc_traits.h
FN:514,_ZNSt16allocator_traitsISaIcEE37select_on_container_copy_constructionERKS0_
FNDA:0,_ZNSt16allocator_traitsISaIcEE37select_on_container_copy_constructionERKS0_
DA:514,0
DA:515,0
end_of_record
SF:/usr/include/c++/9/ext/new_allocator.h
FN:80,_ZN9__gnu_cxx13new_allocatorIcEC2Ev
FNDA:0,_ZN9__gnu_cxx13new_allocatorIcEC2Ev
FN:83,_ZN9__gnu_cxx13new_allocatorIcEC2ERKS1_
FNDA:0,_ZN9__gnu_cxx13new_allocatorIcEC2ERKS1_
FN:89,_ZN9__gnu_cxx13new_allocatorIcED2Ev
FNDA:0,_ZN9__gnu_cxx13new_allocatorIcED2Ev
DA:80,0
DA:83,0
DA:89,0
end_of_record
SF:/usr/include/c++/9/bits/stl_iterator_base_funcs.h
FN:98,_ZSt10__distanceIPcENSt15iterator_traitsIT_E15difference_typeES2_S2_St26random_access_iterator_tag
FNDA:0,_ZSt10__distanceIPcENSt15iterator_traitsIT_E15difference_typeES2_S2_St26random_access_iterator_tag
FN:98,_ZSt10__distanceIPKcENSt15iterator_traitsIT_E15difference_typeES3_S3_St26random_access_iterator_tag
FNDA:0,_ZSt10__distanceIPKcENSt15iterator_traitsIT_E15difference_typeES3_S3_St26random_access_iterator_tag
FN:138,_ZSt8distanceIPcENSt15iterator_traitsIT_E15difference_typeES2_S2_
FNDA:0,_ZSt8distanceIPcENSt15iterator_traitsIT_E15difference_typeES2_S2_
FN:138,_ZSt8distanceIPKcENSt15iterator_traitsIT_E15difference_typeES3_S3_
FNDA:0,_ZSt8distanceIPKcENSt15iterator_traitsIT_E15difference_typeES3_S3_
DA:98,0
DA:104,0
DA:98,0
DA:104,0
DA:138,0
DA:141,0
DA:142,0
DA:138,0
DA:141,0
DA:142,0
end_of_record
SF:/usr/include/c++/9/ext/alloc_traits.h
FN:97,_ZN9__gnu_cxx14__alloc_traitsISaIcEcE17_S_select_on_copyERKS1_
FNDA:0,_ZN9__gnu_cxx14__alloc_traitsISaIcEcE17_S_select_on_copyERKS1_
DA:97,0
DA:98,0
end_of_record
SF:/home/gab/Desktop/repos/cpp_projects/cresser/tests/encoding/lz77_encoder_test.cpp
FN:20,_Z5printNSt7__cxx1112basic_stringIcSt11char_traitsIcESaIcEEE
FNDA:1,_Z5printNSt7__cxx1112basic_stringIcSt11char_traitsIcESaIcEEE
FN:26,main
FNDA:1,main
FN:128,_Z16test_constructorv
FNDA:1,_Z16test_constructorv
FN:143,_Z12test_encoderNSt7__cxx1112basic_stringIcSt11char_traitsIcESaIcEEE
FNDA:6,_Z12test_encoderNSt7__cxx1112basic_stringIcSt11char_traitsIcESaIcEEE
FN:158,_Z10test_splitv
FNDA:1,_Z10test_splitv
FN:176,_Z11assert_passi
FNDA:8,_Z11assert_passi
DA:20,1
DA:21,1
DA:22,1
DA:26,1
DA:27,1
DA:28,1
DA:29,1
DA:31,1
DA:32,1
DA:34,1
DA:36,1
DA:38,1
DA:125,1
DA:128,1
DA:129,1
DA:130,1
DA:132,1
DA:133,1
DA:134,1
DA:135,2
DA:136,1
DA:137,1
DA:138,1
DA:139,1
DA:140,2
DA:143,6
DA:144,6
DA:145,12
DA:146,6
DA:147,6
DA:148,0
DA:149,0
DA:150,0
DA:154,12
DA:158,1
DA:159,1
DA:160,1
DA:161,2
DA:162,2
DA:164,1
DA:165,0
DA:167,1
DA:168,1
DA:169,1
DA:170,0
DA:173,1
DA:176,8
DA:177,8
DA:178,0
DA:180,8
end_of_record
TN:
SF:/home/gab/Desktop/repos/cpp_projects/cresser/tests/fileio/operations_test.cpp
FN:17,main
FNDA:1,main
FN:25,_Z11test_wrfileNSt7__cxx1112basic_stringIcSt11char_traitsIcESaIcEEE
FNDA:1,_Z11test_wrfileNSt7__cxx1112basic_stringIcSt11char_traitsIcESaIcEEE
FN:30,_Z11test_rdfileNSt7__cxx1112basic_stringIcSt11char_traitsIcESaIcEEE
FNDA:1,_Z11test_rdfileNSt7__cxx1112basic_stringIcSt11char_traitsIcESaIcEEE
DA:17,1
DA:19,1
DA:20,1
DA:21,1
DA:22,1
DA:25,1
DA:26,1
DA:27,1
DA:30,1
DA:31,3
DA:32,1
DA:33,0
DA:34,0
DA:35,0
DA:36,0
DA:38,1
end_of_record
SF:/usr/include/c++/9/ext/new_allocator.h
FN:80,_ZN9__gnu_cxx13new_allocatorIcEC2Ev
FNDA:0,_ZN9__gnu_cxx13new_allocatorIcEC2Ev
FN:83,_ZN9__gnu_cxx13new_allocatorIcEC2ERKS1_
FNDA:0,_ZN9__gnu_cxx13new_allocatorIcEC2ERKS1_
FN:89,_ZN9__gnu_cxx13new_allocatorIcED2Ev
FNDA:0,_ZN9__gnu_cxx13new_allocatorIcED2Ev
DA:80,0
DA:83,0
DA:89,0
end_of_record
SF:/usr/include/c++/9/bits/stl_iterator_base_funcs.h
FN:98,_ZSt10__distanceIPcENSt15iterator_traitsIT_E15difference_typeES2_S2_St26random_access_iterator_tag
FNDA:0,_ZSt10__distanceIPcENSt15iterator_traitsIT_E15difference_typeES2_S2_St26random_access_iterator_tag
FN:98,_ZSt10__distanceIPKcENSt15iterator_traitsIT_E15difference_typeES3_S3_St26random_access_iterator_tag
FNDA:0,_ZSt10__distanceIPKcENSt15iterator_traitsIT_E15difference_typeES3_S3_St26random_access_iterator_tag
FN:138,_ZSt8distanceIPcENSt15iterator_traitsIT_E15difference_typeES2_S2_
FNDA:0,_ZSt8distanceIPcENSt15iterator_traitsIT_E15difference_typeES2_S2_
FN:138,_ZSt8distanceIPKcENSt15iterator_traitsIT_E15difference_typeES3_S3_
FNDA:0,_ZSt8distanceIPKcENSt15iterator_traitsIT_E15difference_typeES3_S3_
DA:98,0
DA:104,0
DA:98,0
DA:104,0
DA:138,0
DA:141,0
DA:142,0
DA:138,0
DA:141,0
DA:142,0
end_of_record
SF:/usr/include/c++/9/ext/alloc_traits.h
FN:97,_ZN9__gnu_cxx14__alloc_traitsISaIcEcE17_S_select_on_copyERKS1_
FNDA:0,_ZN9__gnu_cxx14__alloc_traitsISaIcEcE17_S_select_on_copyERKS1_
DA:97,0
DA:98,0
end_of_record
SF:/usr/include/c++/9/bits/basic_string.tcc
FN:206,_ZNSt7__cxx1112basic_stringIcSt11char_traitsIcESaIcEE12_M_constructIPcEEvT_S7_St20forward_iterator_tag
FNDA:0,_ZNSt7__cxx1112basic_stringIcSt11char_traitsIcESaIcEE12_M_constructIPcEEvT_S7_St20forward_iterator_tag
FN:206,_ZNSt7__cxx1112basic_stringIcSt11char_traitsIcESaIcEE12_M_constructIPKcEEvT_S8_St20forward_iterator_tag
FNDA:0,_ZNSt7__cxx1112basic_stringIcSt11char_traitsIcESaIcEE12_M_constructIPKcEEvT_S8_St20forward_iterator_tag
DA:206,0
DA:211,0
DA:212,0
DA:215,0
DA:217,0
DA:219,0
DA:220,0
DA:225,0
DA:226,0
DA:228,0
DA:229,0
DA:232,0
DA:233,0
DA:206,0
DA:211,0
DA:212,0
DA:215,0
DA:217,0
DA:219,0
DA:220,0
DA:225,0
DA:226,0
DA:228,0
DA:229,0
DA:232,0
DA:233,0
end_of_record
SF:/usr/include/c++/9/bits/move.h
FN:99,_ZSt4moveIRSaIcEEONSt16remove_referenceIT_E4typeEOS3_
FNDA:0,_ZSt4moveIRSaIcEEONSt16remove_referenceIT_E4typeEOS3_
DA:99,0
DA:100,0
end_of_record
SF:/usr/include/c++/9/bits/alloc_traits.h
FN:514,_ZNSt16allocator_traitsISaIcEE37select_on_container_copy_constructionERKS0_
FNDA:0,_ZNSt16allocator_traitsISaIcEE37select_on_container_copy_constructionERKS0_
DA:514,0
DA:515,0
end_of_record
SF:/usr/include/c++/9/bits/stl_iterator_base_types.h
FN:205,_ZSt19__iterator_categoryIPcENSt15iterator_traitsIT_E17iterator_categoryERKS2_
FNDA:0,_ZSt19__iterator_categoryIPcENSt15iterator_traitsIT_E17iterator_categoryERKS2_
FN:205,_ZSt19__iterator_categoryIPKcENSt15iterator_traitsIT_E17iterator_categoryERKS3_
FNDA:0,_ZSt19__iterator_categoryIPKcENSt15iterator_traitsIT_E17iterator_categoryERKS3_
DA:205,0
DA:206,0
DA:205,0
DA:206,0
end_of_record
SF:/usr/include/c++/9/iostream
end_of_record
SF:/usr/include/c++/9/ext/type_traits.h
FN:152,_ZN9__gnu_cxx17__is_null_pointerIcEEbPT_
FNDA:0,_ZN9__gnu_cxx17__is_null_pointerIcEEbPT_
FN:152,_ZN9__gnu_cxx17__is_null_pointerIKcEEbPT_
FNDA:0,_ZN9__gnu_cxx17__is_null_pointerIKcEEbPT_
DA:152,0
DA:153,0
DA:152,0
DA:153,0
end_of_record
SF:/usr/include/c++/9/bits/basic_string.h
FN:243,_ZNSt7__cxx1112basic_stringIcSt11char_traitsIcESaIcEE16_M_construct_auxIPcEEvT_S7_St12__false_type
FNDA:0,_ZNSt7__cxx1112basic_stringIcSt11char_traitsIcESaIcEE16_M_construct_auxIPcEEvT_S7_St12__false_type
FN:243,_ZNSt7__cxx1112basic_stringIcSt11char_traitsIcESaIcEE16_M_construct_auxIPKcEEvT_S8_St12__false_type
FNDA:0,_ZNSt7__cxx1112basic_stringIcSt11char_traitsIcESaIcEE16_M_construct_auxIPKcEEvT_S8_St12__false_type
FN:263,_ZNSt7__cxx1112basic_stringIcSt11char_traitsIcESaIcEE12_M_constructIPcEEvT_S7_
FNDA:0,_ZNSt7__cxx1112basic_stringIcSt11char_traitsIcESaIcEE12_M_constructIPcEEvT_S7_
FN:263,_ZNSt7__cxx1112basic_stringIcSt11char_traitsIcESaIcEE12_M_constructIPKcEEvT_S8_
FNDA:0,_ZNSt7__cxx1112basic_stringIcSt11char_traitsIcESaIcEE12_M_constructIPKcEEvT_S8_
DA:243,0
DA:247,0
DA:248,0
DA:243,0
DA:247,0
DA:248,0
DA:263,0
DA:266,0
DA:267,0
DA:263,0
DA:266,0
DA:267,0
end_of_record
SF:/usr/include/c++/9/bits/char_traits.h
FN:329,_ZNSt11char_traitsIcE6lengthEPKc
FNDA:0,_ZNSt11char_traitsIcE6lengthEPKc
DA:329,0
DA:335,0
end_of_record
